ARM GAS  C:\Users\Shahed\AppData\Local\Temp\ccT9luEu.s 			page 1


   1              		.cpu cortex-m0
   2              		.fpu softvfp
   3              		.eabi_attribute 20, 1
   4              		.eabi_attribute 21, 1
   5              		.eabi_attribute 23, 3
   6              		.eabi_attribute 24, 1
   7              		.eabi_attribute 25, 1
   8              		.eabi_attribute 26, 1
   9              		.eabi_attribute 30, 6
  10              		.eabi_attribute 34, 0
  11              		.eabi_attribute 18, 4
  12              		.code	16
  13              		.file	"BLE_gatt.c"
  14              		.text
  15              	.Ltext0:
  16              		.cfi_sections	.debug_frame
  17              		.comm	cyBle_state,1,1
  18              		.global	cyBle_gatts
  19              		.section	.rodata
  20              		.align	2
  21              		.type	cyBle_gatts, %object
  22              		.size	cyBle_gatts, 6
  23              	cyBle_gatts:
  24 0000 0800     		.short	8
  25 0002 0A00     		.short	10
  26 0004 0B00     		.short	11
  27              		.data
  28              		.align	2
  29              		.type	cyBle_attValues, %object
  30              		.size	cyBle_attValues, 40
  31              	cyBle_attValues:
  32 0000 42       		.byte	66
  33 0001 4C       		.byte	76
  34 0002 45       		.byte	69
  35 0003 20       		.byte	32
  36 0004 4C       		.byte	76
  37 0005 61       		.byte	97
  38 0006 62       		.byte	98
  39 0007 20       		.byte	32
  40 0008 32       		.byte	50
  41 0009 00       		.byte	0
  42 000a 02       		.byte	2
  43 000b 06       		.byte	6
  44 000c 00       		.byte	0
  45 000d 28       		.byte	40
  46 000e 00       		.byte	0
  47 000f 00       		.byte	0
  48 0010 00       		.byte	0
  49 0011 E8       		.byte	-24
  50 0012 03       		.byte	3
  51 0013 00       		.byte	0
  52 0014 00       		.byte	0
  53 0015 00       		.byte	0
  54 0016 00       		.byte	0
  55 0017 00       		.byte	0
  56 0018 00       		.byte	0
  57 0019 00       		.byte	0
ARM GAS  C:\Users\Shahed\AppData\Local\Temp\ccT9luEu.s 			page 2


  58 001a 00       		.byte	0
  59 001b 00       		.byte	0
  60 001c 00       		.byte	0
  61 001d 00       		.byte	0
  62 001e 00       		.byte	0
  63 001f 00       		.byte	0
  64 0020 00       		.byte	0
  65 0021 01       		.byte	1
  66 0022 00       		.byte	0
  67 0023 00       		.byte	0
  68 0024 00       		.byte	0
  69 0025 00       		.byte	0
  70 0026 00       		.byte	0
  71 0027 00       		.byte	0
  72              		.global	cyBle_attValuesCCCDFlashMemory
  73              		.section	.rodata
  74 0006 00000000 		.align	7
  74      00000000 
  74      00000000 
  74      00000000 
  74      00000000 
  75              		.type	cyBle_attValuesCCCDFlashMemory, %object
  76              		.size	cyBle_attValuesCCCDFlashMemory, 10
  77              	cyBle_attValuesCCCDFlashMemory:
  78 0080 00000000 		.space	10
  78      00000000 
  78      0000
  79              		.comm	cyBle_attValuesCCCD,2,4
  80              		.global	cyBle_gattDB
  81 008a 0000     		.align	2
  82              		.type	cyBle_gattDB, %object
  83              		.size	cyBle_gattDB, 660
  84              	cyBle_gattDB:
  85 008c 0100     		.short	1
  86 008e 0028     		.short	10240
  87 0090 01000000 		.word	1
  88 0094 0700     		.short	7
  89 0096 0000     		.space	2
  90 0098 0018     		.short	6144
  91 009a 0000     		.space	2
  92 009c 00000000 		.word	0
  93 00a0 0200     		.short	2
  94 00a2 0328     		.short	10243
  95 00a4 01020000 		.word	513
  96 00a8 0300     		.short	3
  97 00aa 0000     		.space	2
  98 00ac 002A     		.short	10752
  99 00ae 0000     		.space	2
 100 00b0 00000000 		.word	0
 101 00b4 0300     		.short	3
 102 00b6 002A     		.short	10752
 103 00b8 01020000 		.word	513
 104 00bc 0300     		.short	3
 105 00be 0000     		.space	2
 106 00c0 0900     		.short	9
 107 00c2 0000     		.space	2
 108 00c4 00000000 		.word	cyBle_attValues
ARM GAS  C:\Users\Shahed\AppData\Local\Temp\ccT9luEu.s 			page 3


 109 00c8 0400     		.short	4
 110 00ca 0328     		.short	10243
 111 00cc 01020000 		.word	513
 112 00d0 0500     		.short	5
 113 00d2 0000     		.space	2
 114 00d4 012A     		.short	10753
 115 00d6 0000     		.space	2
 116 00d8 00000000 		.word	0
 117 00dc 0500     		.short	5
 118 00de 012A     		.short	10753
 119 00e0 01020000 		.word	513
 120 00e4 0500     		.short	5
 121 00e6 0000     		.space	2
 122 00e8 0200     		.short	2
 123 00ea 0000     		.space	2
 124 00ec 09000000 		.word	cyBle_attValues+9
 125 00f0 0600     		.short	6
 126 00f2 0328     		.short	10243
 127 00f4 01020000 		.word	513
 128 00f8 0700     		.short	7
 129 00fa 0000     		.space	2
 130 00fc 042A     		.short	10756
 131 00fe 0000     		.space	2
 132 0100 00000000 		.word	0
 133 0104 0700     		.short	7
 134 0106 042A     		.short	10756
 135 0108 01020000 		.word	513
 136 010c 0700     		.short	7
 137 010e 0000     		.space	2
 138 0110 0800     		.short	8
 139 0112 0000     		.space	2
 140 0114 0B000000 		.word	cyBle_attValues+11
 141 0118 0800     		.short	8
 142 011a 0028     		.short	10240
 143 011c 01000000 		.word	1
 144 0120 0B00     		.short	11
 145 0122 0000     		.space	2
 146 0124 0118     		.short	6145
 147 0126 0000     		.space	2
 148 0128 00000000 		.word	0
 149 012c 0900     		.short	9
 150 012e 0328     		.short	10243
 151 0130 01220000 		.word	8705
 152 0134 0B00     		.short	11
 153 0136 0000     		.space	2
 154 0138 052A     		.short	10757
 155 013a 0000     		.space	2
 156 013c 00000000 		.word	0
 157 0140 0A00     		.short	10
 158 0142 052A     		.short	10757
 159 0144 01220000 		.word	8705
 160 0148 0B00     		.short	11
 161 014a 0000     		.space	2
 162 014c 0400     		.short	4
 163 014e 0000     		.space	2
 164 0150 13000000 		.word	cyBle_attValues+19
 165 0154 0B00     		.short	11
ARM GAS  C:\Users\Shahed\AppData\Local\Temp\ccT9luEu.s 			page 4


 166 0156 0229     		.short	10498
 167 0158 040A0000 		.word	2564
 168 015c 0B00     		.short	11
 169 015e 0000     		.space	2
 170 0160 0200     		.short	2
 171 0162 0000     		.space	2
 172 0164 00000000 		.word	cyBle_attValuesCCCD
 173 0168 0C00     		.short	12
 174 016a 0028     		.short	10240
 175 016c 01000000 		.word	1
 176 0170 0E00     		.short	14
 177 0172 0000     		.space	2
 178 0174 0218     		.short	6146
 179 0176 0000     		.space	2
 180 0178 00000000 		.word	0
 181 017c 0D00     		.short	13
 182 017e 0328     		.short	10243
 183 0180 01040000 		.word	1025
 184 0184 0E00     		.short	14
 185 0186 0000     		.space	2
 186 0188 062A     		.short	10758
 187 018a 0000     		.space	2
 188 018c 00000000 		.word	0
 189 0190 0E00     		.short	14
 190 0192 062A     		.short	10758
 191 0194 02040000 		.word	1026
 192 0198 0E00     		.short	14
 193 019a 0000     		.space	2
 194 019c 0100     		.short	1
 195 019e 0000     		.space	2
 196 01a0 17000000 		.word	cyBle_attValues+23
 197 01a4 0F00     		.short	15
 198 01a6 0028     		.short	10240
 199 01a8 01000000 		.word	1
 200 01ac 2100     		.short	33
 201 01ae 0000     		.space	2
 202 01b0 0A18     		.short	6154
 203 01b2 0000     		.space	2
 204 01b4 00000000 		.word	0
 205 01b8 1000     		.short	16
 206 01ba 0328     		.short	10243
 207 01bc 01020000 		.word	513
 208 01c0 1100     		.short	17
 209 01c2 0000     		.space	2
 210 01c4 292A     		.short	10793
 211 01c6 0000     		.space	2
 212 01c8 00000000 		.word	0
 213 01cc 1100     		.short	17
 214 01ce 292A     		.short	10793
 215 01d0 01020000 		.word	513
 216 01d4 1100     		.short	17
 217 01d6 0000     		.space	2
 218 01d8 0000     		.short	0
 219 01da 0000     		.space	2
 220 01dc 00000000 		.word	0
 221 01e0 1200     		.short	18
 222 01e2 0328     		.short	10243
ARM GAS  C:\Users\Shahed\AppData\Local\Temp\ccT9luEu.s 			page 5


 223 01e4 01020000 		.word	513
 224 01e8 1300     		.short	19
 225 01ea 0000     		.space	2
 226 01ec 242A     		.short	10788
 227 01ee 0000     		.space	2
 228 01f0 00000000 		.word	0
 229 01f4 1300     		.short	19
 230 01f6 242A     		.short	10788
 231 01f8 01020000 		.word	513
 232 01fc 1300     		.short	19
 233 01fe 0000     		.space	2
 234 0200 0000     		.short	0
 235 0202 0000     		.space	2
 236 0204 00000000 		.word	0
 237 0208 1400     		.short	20
 238 020a 0328     		.short	10243
 239 020c 01020000 		.word	513
 240 0210 1500     		.short	21
 241 0212 0000     		.space	2
 242 0214 252A     		.short	10789
 243 0216 0000     		.space	2
 244 0218 00000000 		.word	0
 245 021c 1500     		.short	21
 246 021e 252A     		.short	10789
 247 0220 01020000 		.word	513
 248 0224 1500     		.short	21
 249 0226 0000     		.space	2
 250 0228 0000     		.short	0
 251 022a 0000     		.space	2
 252 022c 00000000 		.word	0
 253 0230 1600     		.short	22
 254 0232 0328     		.short	10243
 255 0234 01020000 		.word	513
 256 0238 1700     		.short	23
 257 023a 0000     		.space	2
 258 023c 272A     		.short	10791
 259 023e 0000     		.space	2
 260 0240 00000000 		.word	0
 261 0244 1700     		.short	23
 262 0246 272A     		.short	10791
 263 0248 01020000 		.word	513
 264 024c 1700     		.short	23
 265 024e 0000     		.space	2
 266 0250 0000     		.short	0
 267 0252 0000     		.space	2
 268 0254 00000000 		.word	0
 269 0258 1800     		.short	24
 270 025a 0328     		.short	10243
 271 025c 01020000 		.word	513
 272 0260 1900     		.short	25
 273 0262 0000     		.space	2
 274 0264 262A     		.short	10790
 275 0266 0000     		.space	2
 276 0268 00000000 		.word	0
 277 026c 1900     		.short	25
 278 026e 262A     		.short	10790
 279 0270 01020000 		.word	513
ARM GAS  C:\Users\Shahed\AppData\Local\Temp\ccT9luEu.s 			page 6


 280 0274 1900     		.short	25
 281 0276 0000     		.space	2
 282 0278 0000     		.short	0
 283 027a 0000     		.space	2
 284 027c 00000000 		.word	0
 285 0280 1A00     		.short	26
 286 0282 0328     		.short	10243
 287 0284 01020000 		.word	513
 288 0288 1B00     		.short	27
 289 028a 0000     		.space	2
 290 028c 282A     		.short	10792
 291 028e 0000     		.space	2
 292 0290 00000000 		.word	0
 293 0294 1B00     		.short	27
 294 0296 282A     		.short	10792
 295 0298 01020000 		.word	513
 296 029c 1B00     		.short	27
 297 029e 0000     		.space	2
 298 02a0 0000     		.short	0
 299 02a2 0000     		.space	2
 300 02a4 00000000 		.word	0
 301 02a8 1C00     		.short	28
 302 02aa 0328     		.short	10243
 303 02ac 01020000 		.word	513
 304 02b0 1D00     		.short	29
 305 02b2 0000     		.space	2
 306 02b4 232A     		.short	10787
 307 02b6 0000     		.space	2
 308 02b8 00000000 		.word	0
 309 02bc 1D00     		.short	29
 310 02be 232A     		.short	10787
 311 02c0 01020000 		.word	513
 312 02c4 1D00     		.short	29
 313 02c6 0000     		.space	2
 314 02c8 0800     		.short	8
 315 02ca 0000     		.space	2
 316 02cc 18000000 		.word	cyBle_attValues+24
 317 02d0 1E00     		.short	30
 318 02d2 0328     		.short	10243
 319 02d4 01020000 		.word	513
 320 02d8 1F00     		.short	31
 321 02da 0000     		.space	2
 322 02dc 2A2A     		.short	10794
 323 02de 0000     		.space	2
 324 02e0 00000000 		.word	0
 325 02e4 1F00     		.short	31
 326 02e6 2A2A     		.short	10794
 327 02e8 01020000 		.word	513
 328 02ec 1F00     		.short	31
 329 02ee 0000     		.space	2
 330 02f0 0100     		.short	1
 331 02f2 0000     		.space	2
 332 02f4 20000000 		.word	cyBle_attValues+32
 333 02f8 2000     		.short	32
 334 02fa 0328     		.short	10243
 335 02fc 01020000 		.word	513
 336 0300 2100     		.short	33
ARM GAS  C:\Users\Shahed\AppData\Local\Temp\ccT9luEu.s 			page 7


 337 0302 0000     		.space	2
 338 0304 502A     		.short	10832
 339 0306 0000     		.space	2
 340 0308 00000000 		.word	0
 341 030c 2100     		.short	33
 342 030e 502A     		.short	10832
 343 0310 01020000 		.word	513
 344 0314 2100     		.short	33
 345 0316 0000     		.space	2
 346 0318 0700     		.short	7
 347 031a 0000     		.space	2
 348 031c 21000000 		.word	cyBle_attValues+33
 349 0320 00000000 		.section	.text.CyBle_GattsReInitGattDb,"ax",%progbits
 349      00000000 
 349      00000000 
 349      00000000 
 349      00000000 
 350              		.align	2
 351              		.global	CyBle_GattsReInitGattDb
 352              		.code	16
 353              		.thumb_func
 354              		.type	CyBle_GattsReInitGattDb, %function
 355              	CyBle_GattsReInitGattDb:
 356              	.LFB2:
 357              		.file 1 ".\\Generated_Source\\PSoC4\\BLE_gatt.c"
   1:.\Generated_Source\PSoC4/BLE_gatt.c **** /*******************************************************************************
   2:.\Generated_Source\PSoC4/BLE_gatt.c **** File Name: CYBLE_gatt.c
   3:.\Generated_Source\PSoC4/BLE_gatt.c **** Version 1.20
   4:.\Generated_Source\PSoC4/BLE_gatt.c **** 
   5:.\Generated_Source\PSoC4/BLE_gatt.c **** Description:
   6:.\Generated_Source\PSoC4/BLE_gatt.c ****  This file contains the source code for the GATT API of the BLE Component.
   7:.\Generated_Source\PSoC4/BLE_gatt.c **** 
   8:.\Generated_Source\PSoC4/BLE_gatt.c **** ********************************************************************************
   9:.\Generated_Source\PSoC4/BLE_gatt.c **** Copyright 2014-2015, Cypress Semiconductor Corporation.  All rights reserved.
  10:.\Generated_Source\PSoC4/BLE_gatt.c **** You may use this file only in accordance with the license, terms, conditions,
  11:.\Generated_Source\PSoC4/BLE_gatt.c **** disclaimers, and limitations in the end user license agreement accompanying
  12:.\Generated_Source\PSoC4/BLE_gatt.c **** the software package with which this file was provided.
  13:.\Generated_Source\PSoC4/BLE_gatt.c **** *******************************************************************************/
  14:.\Generated_Source\PSoC4/BLE_gatt.c **** 
  15:.\Generated_Source\PSoC4/BLE_gatt.c **** 
  16:.\Generated_Source\PSoC4/BLE_gatt.c **** #include "BLE_eventHandler.h"
  17:.\Generated_Source\PSoC4/BLE_gatt.c **** 
  18:.\Generated_Source\PSoC4/BLE_gatt.c **** 
  19:.\Generated_Source\PSoC4/BLE_gatt.c **** /***************************************
  20:.\Generated_Source\PSoC4/BLE_gatt.c **** ##Global variables
  21:.\Generated_Source\PSoC4/BLE_gatt.c **** ***************************************/
  22:.\Generated_Source\PSoC4/BLE_gatt.c **** 
  23:.\Generated_Source\PSoC4/BLE_gatt.c **** CYBLE_STATE_T cyBle_state;
  24:.\Generated_Source\PSoC4/BLE_gatt.c **** 
  25:.\Generated_Source\PSoC4/BLE_gatt.c **** 
  26:.\Generated_Source\PSoC4/BLE_gatt.c **** #if(CYBLE_GATT_ROLE_SERVER)
  27:.\Generated_Source\PSoC4/BLE_gatt.c ****     
  28:.\Generated_Source\PSoC4/BLE_gatt.c ****     const CYBLE_GATTS_T cyBle_gatts =
  29:.\Generated_Source\PSoC4/BLE_gatt.c **** {
  30:.\Generated_Source\PSoC4/BLE_gatt.c ****     0x0008u,    /* Handle of the GATT service */
  31:.\Generated_Source\PSoC4/BLE_gatt.c ****     0x000Au,    /* Handle of the Service Changed characteristic */
  32:.\Generated_Source\PSoC4/BLE_gatt.c ****     0x000Bu,    /* Handle of the Client Characteristic Configuration descriptor */
ARM GAS  C:\Users\Shahed\AppData\Local\Temp\ccT9luEu.s 			page 8


  33:.\Generated_Source\PSoC4/BLE_gatt.c **** };
  34:.\Generated_Source\PSoC4/BLE_gatt.c ****     
  35:.\Generated_Source\PSoC4/BLE_gatt.c ****     static uint8 cyBle_attValues[0x28u] = {
  36:.\Generated_Source\PSoC4/BLE_gatt.c **** /* Device Name */
  37:.\Generated_Source\PSoC4/BLE_gatt.c **** (uint8)'B', (uint8)'L', (uint8)'E', (uint8)' ', (uint8)'L', (uint8)'a', (uint8)'b', (uint8)' ', (ui
  38:.\Generated_Source\PSoC4/BLE_gatt.c **** 
  39:.\Generated_Source\PSoC4/BLE_gatt.c **** /* Appearance */
  40:.\Generated_Source\PSoC4/BLE_gatt.c **** 0x00u, 0x02u, 
  41:.\Generated_Source\PSoC4/BLE_gatt.c **** 
  42:.\Generated_Source\PSoC4/BLE_gatt.c **** /* Peripheral Preferred Connection Parameters */
  43:.\Generated_Source\PSoC4/BLE_gatt.c **** 0x06u, 0x00u, 0x28u, 0x00u, 0x00u, 0x00u, 0xE8u, 0x03u, 
  44:.\Generated_Source\PSoC4/BLE_gatt.c **** 
  45:.\Generated_Source\PSoC4/BLE_gatt.c **** /* Service Changed */
  46:.\Generated_Source\PSoC4/BLE_gatt.c **** 0x00u, 0x00u, 0x00u, 0x00u, 
  47:.\Generated_Source\PSoC4/BLE_gatt.c **** 
  48:.\Generated_Source\PSoC4/BLE_gatt.c **** /* Alert Level */
  49:.\Generated_Source\PSoC4/BLE_gatt.c **** 0x00u, 
  50:.\Generated_Source\PSoC4/BLE_gatt.c **** 
  51:.\Generated_Source\PSoC4/BLE_gatt.c **** /* Manufacturer Name String */
  52:.\Generated_Source\PSoC4/BLE_gatt.c **** 
  53:.\Generated_Source\PSoC4/BLE_gatt.c **** 
  54:.\Generated_Source\PSoC4/BLE_gatt.c **** /* Model Number String */
  55:.\Generated_Source\PSoC4/BLE_gatt.c **** 
  56:.\Generated_Source\PSoC4/BLE_gatt.c **** 
  57:.\Generated_Source\PSoC4/BLE_gatt.c **** /* Serial Number String */
  58:.\Generated_Source\PSoC4/BLE_gatt.c **** 
  59:.\Generated_Source\PSoC4/BLE_gatt.c **** 
  60:.\Generated_Source\PSoC4/BLE_gatt.c **** /* Hardware Revision String */
  61:.\Generated_Source\PSoC4/BLE_gatt.c **** 
  62:.\Generated_Source\PSoC4/BLE_gatt.c **** 
  63:.\Generated_Source\PSoC4/BLE_gatt.c **** /* Firmware Revision String */
  64:.\Generated_Source\PSoC4/BLE_gatt.c **** 
  65:.\Generated_Source\PSoC4/BLE_gatt.c **** 
  66:.\Generated_Source\PSoC4/BLE_gatt.c **** /* Software Revision String */
  67:.\Generated_Source\PSoC4/BLE_gatt.c **** 
  68:.\Generated_Source\PSoC4/BLE_gatt.c **** 
  69:.\Generated_Source\PSoC4/BLE_gatt.c **** /* System ID */
  70:.\Generated_Source\PSoC4/BLE_gatt.c **** 0x00u, 0x00u, 0x00u, 0x00u, 0x00u, 0x00u, 0x00u, 0x00u, 
  71:.\Generated_Source\PSoC4/BLE_gatt.c **** 
  72:.\Generated_Source\PSoC4/BLE_gatt.c **** /* IEEE 11073-20601 Regulatory Certification Data List */
  73:.\Generated_Source\PSoC4/BLE_gatt.c **** 0x00u, 
  74:.\Generated_Source\PSoC4/BLE_gatt.c **** 
  75:.\Generated_Source\PSoC4/BLE_gatt.c **** /* PnP ID */
  76:.\Generated_Source\PSoC4/BLE_gatt.c **** 0x01u, 0x00u, 0x00u, 0x00u, 0x00u, 0x00u, 0x00u, 
  77:.\Generated_Source\PSoC4/BLE_gatt.c **** 
  78:.\Generated_Source\PSoC4/BLE_gatt.c **** };
  79:.\Generated_Source\PSoC4/BLE_gatt.c **** 
  80:.\Generated_Source\PSoC4/BLE_gatt.c **** #if defined(__GNUC__) || defined(__ARMCC_VERSION)
  81:.\Generated_Source\PSoC4/BLE_gatt.c **** const uint8 cyBle_attValuesCCCDFlashMemory[CYBLE_GAP_MAX_BONDED_DEVICE + 1u][CYBLE_GATT_DB_CCCD_COU
  82:.\Generated_Source\PSoC4/BLE_gatt.c **** #elif defined(__ICCARM__)
  83:.\Generated_Source\PSoC4/BLE_gatt.c **** /* The cyBle_attValuesCCCDFlashMemory[] should be aligned to the size of a Flash row */
  84:.\Generated_Source\PSoC4/BLE_gatt.c **** #pragma data_alignment=CY_FLASH_SIZEOF_ROW
  85:.\Generated_Source\PSoC4/BLE_gatt.c **** const uint8 cyBle_attValuesCCCDFlashMemory[CYBLE_GAP_MAX_BONDED_DEVICE + 1u][CYBLE_GATT_DB_CCCD_COU
  86:.\Generated_Source\PSoC4/BLE_gatt.c **** #endif /* defined(__GNUC__) || defined(__ARMCC_VERSION) */
  87:.\Generated_Source\PSoC4/BLE_gatt.c **** {
  88:.\Generated_Source\PSoC4/BLE_gatt.c **** /* Client Characteristic Configuration */
  89:.\Generated_Source\PSoC4/BLE_gatt.c **** 0x00u, 0x00u, 
ARM GAS  C:\Users\Shahed\AppData\Local\Temp\ccT9luEu.s 			page 9


  90:.\Generated_Source\PSoC4/BLE_gatt.c **** 
  91:.\Generated_Source\PSoC4/BLE_gatt.c **** },
  92:.\Generated_Source\PSoC4/BLE_gatt.c **** {
  93:.\Generated_Source\PSoC4/BLE_gatt.c **** /* Client Characteristic Configuration */
  94:.\Generated_Source\PSoC4/BLE_gatt.c **** 0x00u, 0x00u, 
  95:.\Generated_Source\PSoC4/BLE_gatt.c **** 
  96:.\Generated_Source\PSoC4/BLE_gatt.c **** },
  97:.\Generated_Source\PSoC4/BLE_gatt.c **** {
  98:.\Generated_Source\PSoC4/BLE_gatt.c **** /* Client Characteristic Configuration */
  99:.\Generated_Source\PSoC4/BLE_gatt.c **** 0x00u, 0x00u, 
 100:.\Generated_Source\PSoC4/BLE_gatt.c **** 
 101:.\Generated_Source\PSoC4/BLE_gatt.c **** },
 102:.\Generated_Source\PSoC4/BLE_gatt.c **** {
 103:.\Generated_Source\PSoC4/BLE_gatt.c **** /* Client Characteristic Configuration */
 104:.\Generated_Source\PSoC4/BLE_gatt.c **** 0x00u, 0x00u, 
 105:.\Generated_Source\PSoC4/BLE_gatt.c **** 
 106:.\Generated_Source\PSoC4/BLE_gatt.c **** },
 107:.\Generated_Source\PSoC4/BLE_gatt.c **** {
 108:.\Generated_Source\PSoC4/BLE_gatt.c **** /* Client Characteristic Configuration */
 109:.\Generated_Source\PSoC4/BLE_gatt.c **** 0x00u, 0x00u, 
 110:.\Generated_Source\PSoC4/BLE_gatt.c **** 
 111:.\Generated_Source\PSoC4/BLE_gatt.c **** },
 112:.\Generated_Source\PSoC4/BLE_gatt.c **** };
 113:.\Generated_Source\PSoC4/BLE_gatt.c **** uint8 cyBle_attValuesCCCD[CYBLE_GATT_DB_CCCD_COUNT];
 114:.\Generated_Source\PSoC4/BLE_gatt.c **** 
 115:.\Generated_Source\PSoC4/BLE_gatt.c **** const CYBLE_GATTS_DB_T cyBle_gattDB[0x21u] = {
 116:.\Generated_Source\PSoC4/BLE_gatt.c **** { 0x0001u, 0x2800u /* Primary service                     */, 0x00000001u /*        */, 0x0007u, {{
 117:.\Generated_Source\PSoC4/BLE_gatt.c **** { 0x0002u, 0x2803u /* Characteristic                      */, 0x00000201u /* rd     */, 0x0003u, {{
 118:.\Generated_Source\PSoC4/BLE_gatt.c **** { 0x0003u, 0x2A00u /* Device Name                         */, 0x00000201u /* rd     */, 0x0003u, {{
 119:.\Generated_Source\PSoC4/BLE_gatt.c **** { 0x0004u, 0x2803u /* Characteristic                      */, 0x00000201u /* rd     */, 0x0005u, {{
 120:.\Generated_Source\PSoC4/BLE_gatt.c **** { 0x0005u, 0x2A01u /* Appearance                          */, 0x00000201u /* rd     */, 0x0005u, {{
 121:.\Generated_Source\PSoC4/BLE_gatt.c **** { 0x0006u, 0x2803u /* Characteristic                      */, 0x00000201u /* rd     */, 0x0007u, {{
 122:.\Generated_Source\PSoC4/BLE_gatt.c **** { 0x0007u, 0x2A04u /* Peripheral Preferred Connection Par */, 0x00000201u /* rd     */, 0x0007u, {{
 123:.\Generated_Source\PSoC4/BLE_gatt.c **** { 0x0008u, 0x2800u /* Primary service                     */, 0x00000001u /*        */, 0x000Bu, {{
 124:.\Generated_Source\PSoC4/BLE_gatt.c **** { 0x0009u, 0x2803u /* Characteristic                      */, 0x00002201u /* rd,ind */, 0x000Bu, {{
 125:.\Generated_Source\PSoC4/BLE_gatt.c **** { 0x000Au, 0x2A05u /* Service Changed                     */, 0x00002201u /* rd,ind */, 0x000Bu, {{
 126:.\Generated_Source\PSoC4/BLE_gatt.c **** { 0x000Bu, 0x2902u /* Client Characteristic Configuration */, 0x00000A04u /* rd,wr  */, 0x000Bu, {{
 127:.\Generated_Source\PSoC4/BLE_gatt.c **** { 0x000Cu, 0x2800u /* Primary service                     */, 0x00000001u /*        */, 0x000Eu, {{
 128:.\Generated_Source\PSoC4/BLE_gatt.c **** { 0x000Du, 0x2803u /* Characteristic                      */, 0x00000401u /* wwr    */, 0x000Eu, {{
 129:.\Generated_Source\PSoC4/BLE_gatt.c **** { 0x000Eu, 0x2A06u /* Alert Level                         */, 0x00000402u /* wwr    */, 0x000Eu, {{
 130:.\Generated_Source\PSoC4/BLE_gatt.c **** { 0x000Fu, 0x2800u /* Primary service                     */, 0x00000001u /*        */, 0x0021u, {{
 131:.\Generated_Source\PSoC4/BLE_gatt.c **** { 0x0010u, 0x2803u /* Characteristic                      */, 0x00000201u /* rd     */, 0x0011u, {{
 132:.\Generated_Source\PSoC4/BLE_gatt.c **** { 0x0011u, 0x2A29u /* Manufacturer Name String            */, 0x00000201u /* rd     */, 0x0011u, {{
 133:.\Generated_Source\PSoC4/BLE_gatt.c **** { 0x0012u, 0x2803u /* Characteristic                      */, 0x00000201u /* rd     */, 0x0013u, {{
 134:.\Generated_Source\PSoC4/BLE_gatt.c **** { 0x0013u, 0x2A24u /* Model Number String                 */, 0x00000201u /* rd     */, 0x0013u, {{
 135:.\Generated_Source\PSoC4/BLE_gatt.c **** { 0x0014u, 0x2803u /* Characteristic                      */, 0x00000201u /* rd     */, 0x0015u, {{
 136:.\Generated_Source\PSoC4/BLE_gatt.c **** { 0x0015u, 0x2A25u /* Serial Number String                */, 0x00000201u /* rd     */, 0x0015u, {{
 137:.\Generated_Source\PSoC4/BLE_gatt.c **** { 0x0016u, 0x2803u /* Characteristic                      */, 0x00000201u /* rd     */, 0x0017u, {{
 138:.\Generated_Source\PSoC4/BLE_gatt.c **** { 0x0017u, 0x2A27u /* Hardware Revision String            */, 0x00000201u /* rd     */, 0x0017u, {{
 139:.\Generated_Source\PSoC4/BLE_gatt.c **** { 0x0018u, 0x2803u /* Characteristic                      */, 0x00000201u /* rd     */, 0x0019u, {{
 140:.\Generated_Source\PSoC4/BLE_gatt.c **** { 0x0019u, 0x2A26u /* Firmware Revision String            */, 0x00000201u /* rd     */, 0x0019u, {{
 141:.\Generated_Source\PSoC4/BLE_gatt.c **** { 0x001Au, 0x2803u /* Characteristic                      */, 0x00000201u /* rd     */, 0x001Bu, {{
 142:.\Generated_Source\PSoC4/BLE_gatt.c **** { 0x001Bu, 0x2A28u /* Software Revision String            */, 0x00000201u /* rd     */, 0x001Bu, {{
 143:.\Generated_Source\PSoC4/BLE_gatt.c **** { 0x001Cu, 0x2803u /* Characteristic                      */, 0x00000201u /* rd     */, 0x001Du, {{
 144:.\Generated_Source\PSoC4/BLE_gatt.c **** { 0x001Du, 0x2A23u /* System ID                           */, 0x00000201u /* rd     */, 0x001Du, {{
 145:.\Generated_Source\PSoC4/BLE_gatt.c **** { 0x001Eu, 0x2803u /* Characteristic                      */, 0x00000201u /* rd     */, 0x001Fu, {{
 146:.\Generated_Source\PSoC4/BLE_gatt.c **** { 0x001Fu, 0x2A2Au /* IEEE 11073-20601 Regulatory Certifi */, 0x00000201u /* rd     */, 0x001Fu, {{
ARM GAS  C:\Users\Shahed\AppData\Local\Temp\ccT9luEu.s 			page 10


 147:.\Generated_Source\PSoC4/BLE_gatt.c **** { 0x0020u, 0x2803u /* Characteristic                      */, 0x00000201u /* rd     */, 0x0021u, {{
 148:.\Generated_Source\PSoC4/BLE_gatt.c **** { 0x0021u, 0x2A50u /* PnP ID                              */, 0x00000201u /* rd     */, 0x0021u, {{
 149:.\Generated_Source\PSoC4/BLE_gatt.c **** };
 150:.\Generated_Source\PSoC4/BLE_gatt.c **** 
 151:.\Generated_Source\PSoC4/BLE_gatt.c **** 
 152:.\Generated_Source\PSoC4/BLE_gatt.c **** #endif /* (CYBLE_GATT_ROLE_SERVER) */
 153:.\Generated_Source\PSoC4/BLE_gatt.c **** 
 154:.\Generated_Source\PSoC4/BLE_gatt.c **** #if(CYBLE_GATT_ROLE_CLIENT)
 155:.\Generated_Source\PSoC4/BLE_gatt.c ****     
 156:.\Generated_Source\PSoC4/BLE_gatt.c **** CYBLE_CLIENT_STATE_T cyBle_clientState;
 157:.\Generated_Source\PSoC4/BLE_gatt.c **** CYBLE_GATTC_T cyBle_gattc;
 158:.\Generated_Source\PSoC4/BLE_gatt.c ****     
 159:.\Generated_Source\PSoC4/BLE_gatt.c **** #endif /* (CYBLE_GATT_ROLE_CLIENT) */
 160:.\Generated_Source\PSoC4/BLE_gatt.c **** 
 161:.\Generated_Source\PSoC4/BLE_gatt.c **** 
 162:.\Generated_Source\PSoC4/BLE_gatt.c **** #if(CYBLE_GATT_ROLE_SERVER)
 163:.\Generated_Source\PSoC4/BLE_gatt.c **** 
 164:.\Generated_Source\PSoC4/BLE_gatt.c **** /****************************************************************************** 
 165:.\Generated_Source\PSoC4/BLE_gatt.c **** ##Function Name: CyBle_GattsReInitGattDb
 166:.\Generated_Source\PSoC4/BLE_gatt.c **** *******************************************************************************
 167:.\Generated_Source\PSoC4/BLE_gatt.c **** 
 168:.\Generated_Source\PSoC4/BLE_gatt.c **** Summary:
 169:.\Generated_Source\PSoC4/BLE_gatt.c ****  Reinitializes the GATT database.
 170:.\Generated_Source\PSoC4/BLE_gatt.c **** 
 171:.\Generated_Source\PSoC4/BLE_gatt.c **** Parameters:
 172:.\Generated_Source\PSoC4/BLE_gatt.c ****  None
 173:.\Generated_Source\PSoC4/BLE_gatt.c **** 
 174:.\Generated_Source\PSoC4/BLE_gatt.c **** Return:
 175:.\Generated_Source\PSoC4/BLE_gatt.c ****  CYBLE_API_RESULT_T: An API result states if the API succeeded or failed with
 176:.\Generated_Source\PSoC4/BLE_gatt.c ****  error codes:
 177:.\Generated_Source\PSoC4/BLE_gatt.c ****   * CYBLE_ERROR_OK: GATT database was reinitialized successfully
 178:.\Generated_Source\PSoC4/BLE_gatt.c ****   * CYBLE_ERROR_INVALID_STATE: If the function is called in any state except
 179:.\Generated_Source\PSoC4/BLE_gatt.c ****                                 CYBLE_STATE_DISCONNECTED.
 180:.\Generated_Source\PSoC4/BLE_gatt.c ****   * Any of the CyBle_GattsDbRegister() stack API function return values.
 181:.\Generated_Source\PSoC4/BLE_gatt.c **** 
 182:.\Generated_Source\PSoC4/BLE_gatt.c **** ******************************************************************************/
 183:.\Generated_Source\PSoC4/BLE_gatt.c **** CYBLE_API_RESULT_T CyBle_GattsReInitGattDb(void)
 184:.\Generated_Source\PSoC4/BLE_gatt.c **** {
 358              		.loc 1 184 0
 359              		.cfi_startproc
 360 0000 90B5     		push	{r4, r7, lr}
 361              		.cfi_def_cfa_offset 12
 362              		.cfi_offset 4, -12
 363              		.cfi_offset 7, -8
 364              		.cfi_offset 14, -4
 365 0002 83B0     		sub	sp, sp, #12
 366              		.cfi_def_cfa_offset 24
 367 0004 00AF     		add	r7, sp, #0
 368              		.cfi_def_cfa_register 7
 185:.\Generated_Source\PSoC4/BLE_gatt.c ****     CYBLE_API_RESULT_T apiResult;
 186:.\Generated_Source\PSoC4/BLE_gatt.c ****     
 187:.\Generated_Source\PSoC4/BLE_gatt.c ****     if(CYBLE_STATE_DISCONNECTED == CyBle_GetState())
 369              		.loc 1 187 0
 370 0006 0C4B     		ldr	r3, .L5
 371 0008 1B78     		ldrb	r3, [r3]
 372 000a 042B     		cmp	r3, #4
 373 000c 09D1     		bne	.L2
ARM GAS  C:\Users\Shahed\AppData\Local\Temp\ccT9luEu.s 			page 11


 188:.\Generated_Source\PSoC4/BLE_gatt.c ****     {
 189:.\Generated_Source\PSoC4/BLE_gatt.c ****         apiResult = CyBle_GattsDbRegister(cyBle_gattDB, CYBLE_GATT_DB_INDEX_COUNT, CYBLE_GATT_DB_MA
 374              		.loc 1 189 0
 375 000e BC1D     		add	r4, r7, #6
 376 0010 0A4B     		ldr	r3, .L5+4
 377 0012 181C     		mov	r0, r3
 378 0014 2121     		mov	r1, #33
 379 0016 0922     		mov	r2, #9
 380 0018 FFF7FEFF 		bl	CyBle_GattsDbRegister
 381 001c 031C     		mov	r3, r0
 382 001e 2380     		strh	r3, [r4]
 383 0020 03E0     		b	.L3
 384              	.L2:
 190:.\Generated_Source\PSoC4/BLE_gatt.c ****     }
 191:.\Generated_Source\PSoC4/BLE_gatt.c ****     else
 192:.\Generated_Source\PSoC4/BLE_gatt.c ****     {
 193:.\Generated_Source\PSoC4/BLE_gatt.c ****         apiResult = CYBLE_ERROR_INVALID_STATE;
 385              		.loc 1 193 0
 386 0022 BB1D     		add	r3, r7, #6
 387 0024 8322     		mov	r2, #131
 388 0026 5200     		lsl	r2, r2, #1
 389 0028 1A80     		strh	r2, [r3]
 390              	.L3:
 194:.\Generated_Source\PSoC4/BLE_gatt.c ****     }
 195:.\Generated_Source\PSoC4/BLE_gatt.c ****     
 196:.\Generated_Source\PSoC4/BLE_gatt.c ****     return(apiResult);
 391              		.loc 1 196 0
 392 002a BB1D     		add	r3, r7, #6
 393 002c 1B88     		ldrh	r3, [r3]
 197:.\Generated_Source\PSoC4/BLE_gatt.c **** }
 394              		.loc 1 197 0
 395 002e 181C     		mov	r0, r3
 396 0030 BD46     		mov	sp, r7
 397 0032 03B0     		add	sp, sp, #12
 398              		@ sp needed
 399 0034 90BD     		pop	{r4, r7, pc}
 400              	.L6:
 401 0036 C046     		.align	2
 402              	.L5:
 403 0038 00000000 		.word	cyBle_state
 404 003c 00000000 		.word	cyBle_gattDB
 405              		.cfi_endproc
 406              	.LFE2:
 407              		.size	CyBle_GattsReInitGattDb, .-CyBle_GattsReInitGattDb
 408              		.section	.text.CyBle_GattsWriteEventHandler,"ax",%progbits
 409              		.align	2
 410              		.global	CyBle_GattsWriteEventHandler
 411              		.code	16
 412              		.thumb_func
 413              		.type	CyBle_GattsWriteEventHandler, %function
 414              	CyBle_GattsWriteEventHandler:
 415              	.LFB3:
 198:.\Generated_Source\PSoC4/BLE_gatt.c **** 
 199:.\Generated_Source\PSoC4/BLE_gatt.c **** 
 200:.\Generated_Source\PSoC4/BLE_gatt.c **** /****************************************************************************** 
 201:.\Generated_Source\PSoC4/BLE_gatt.c **** ##Function Name: CyBle_GattsWriteEventHandler
 202:.\Generated_Source\PSoC4/BLE_gatt.c **** *******************************************************************************
ARM GAS  C:\Users\Shahed\AppData\Local\Temp\ccT9luEu.s 			page 12


 203:.\Generated_Source\PSoC4/BLE_gatt.c **** 
 204:.\Generated_Source\PSoC4/BLE_gatt.c **** Summary:
 205:.\Generated_Source\PSoC4/BLE_gatt.c ****  Handles the Write Request Event for GATT service.
 206:.\Generated_Source\PSoC4/BLE_gatt.c **** 
 207:.\Generated_Source\PSoC4/BLE_gatt.c **** Parameters:
 208:.\Generated_Source\PSoC4/BLE_gatt.c ****  *eventParam: The pointer to the data structure specified by the event.
 209:.\Generated_Source\PSoC4/BLE_gatt.c **** 
 210:.\Generated_Source\PSoC4/BLE_gatt.c **** Return:
 211:.\Generated_Source\PSoC4/BLE_gatt.c ****  * CYBLE_GATT_ERR_CODE_T: An API result returns one of the following status 
 212:.\Generated_Source\PSoC4/BLE_gatt.c ****     values
 213:.\Generated_Source\PSoC4/BLE_gatt.c ****  * CYBLE_GATT_ERR_NONE - Write is successful.
 214:.\Generated_Source\PSoC4/BLE_gatt.c **** 
 215:.\Generated_Source\PSoC4/BLE_gatt.c **** ******************************************************************************/
 216:.\Generated_Source\PSoC4/BLE_gatt.c **** CYBLE_GATT_ERR_CODE_T CyBle_GattsWriteEventHandler(CYBLE_GATTS_WRITE_REQ_PARAM_T *eventParam)
 217:.\Generated_Source\PSoC4/BLE_gatt.c **** {
 416              		.loc 1 217 0
 417              		.cfi_startproc
 418 0000 90B5     		push	{r4, r7, lr}
 419              		.cfi_def_cfa_offset 12
 420              		.cfi_offset 4, -12
 421              		.cfi_offset 7, -8
 422              		.cfi_offset 14, -4
 423 0002 85B0     		sub	sp, sp, #20
 424              		.cfi_def_cfa_offset 32
 425 0004 00AF     		add	r7, sp, #0
 426              		.cfi_def_cfa_register 7
 427 0006 7860     		str	r0, [r7, #4]
 218:.\Generated_Source\PSoC4/BLE_gatt.c ****     CYBLE_GATT_ERR_CODE_T gattErr = CYBLE_GATT_ERR_NONE;
 428              		.loc 1 218 0
 429 0008 3B1C     		mov	r3, r7
 430 000a 0F33     		add	r3, r3, #15
 431 000c 0022     		mov	r2, #0
 432 000e 1A70     		strb	r2, [r3]
 219:.\Generated_Source\PSoC4/BLE_gatt.c ****     
 220:.\Generated_Source\PSoC4/BLE_gatt.c ****     /* Client Characteristic Configuration descriptor write request */
 221:.\Generated_Source\PSoC4/BLE_gatt.c ****     if(eventParam->handleValPair.attrHandle == cyBle_gatts.cccdHandle)
 433              		.loc 1 221 0
 434 0010 7B68     		ldr	r3, [r7, #4]
 435 0012 9A89     		ldrh	r2, [r3, #12]
 436 0014 0B23     		mov	r3, #11
 437 0016 9A42     		cmp	r2, r3
 438 0018 37D1     		bne	.L8
 222:.\Generated_Source\PSoC4/BLE_gatt.c ****     {
 223:.\Generated_Source\PSoC4/BLE_gatt.c ****         /* Store value to database */
 224:.\Generated_Source\PSoC4/BLE_gatt.c ****         gattErr = CyBle_GattsWriteAttributeValue(&eventParam->handleValPair, 0u, 
 439              		.loc 1 224 0
 440 001a 7B68     		ldr	r3, [r7, #4]
 441 001c 1A1D     		add	r2, r3, #4
 442 001e 7B68     		ldr	r3, [r7, #4]
 443 0020 3C1C     		mov	r4, r7
 444 0022 0F34     		add	r4, r4, #15
 445 0024 101C     		mov	r0, r2
 446 0026 0021     		mov	r1, #0
 447 0028 1A1C     		mov	r2, r3
 448 002a 4023     		mov	r3, #64
 449 002c FFF7FEFF 		bl	CyBle_GattsWriteAttributeValue
 450 0030 031C     		mov	r3, r0
ARM GAS  C:\Users\Shahed\AppData\Local\Temp\ccT9luEu.s 			page 13


 451 0032 2370     		strb	r3, [r4]
 225:.\Generated_Source\PSoC4/BLE_gatt.c ****                         &eventParam->connHandle, CYBLE_GATT_DB_PEER_INITIATED);
 226:.\Generated_Source\PSoC4/BLE_gatt.c ****         
 227:.\Generated_Source\PSoC4/BLE_gatt.c ****         if(CYBLE_GATT_ERR_NONE == gattErr)
 452              		.loc 1 227 0
 453 0034 3B1C     		mov	r3, r7
 454 0036 0F33     		add	r3, r3, #15
 455 0038 1B78     		ldrb	r3, [r3]
 456 003a 002B     		cmp	r3, #0
 457 003c 1DD1     		bne	.L9
 228:.\Generated_Source\PSoC4/BLE_gatt.c ****         {
 229:.\Generated_Source\PSoC4/BLE_gatt.c ****             if(CYBLE_IS_INDICATION_ENABLED_IN_PTR(eventParam->handleValPair.value.val))
 458              		.loc 1 229 0
 459 003e 7B68     		ldr	r3, [r7, #4]
 460 0040 5B68     		ldr	r3, [r3, #4]
 461 0042 181C     		mov	r0, r3
 462 0044 FFF7FEFF 		bl	CyBle_Get16ByPtr
 463 0048 031C     		mov	r3, r0
 464 004a 1A1C     		mov	r2, r3
 465 004c 0223     		mov	r3, #2
 466 004e 1340     		and	r3, r2
 467 0050 9BB2     		uxth	r3, r3
 468 0052 002B     		cmp	r3, #0
 469 0054 08D0     		beq	.L10
 230:.\Generated_Source\PSoC4/BLE_gatt.c ****             {
 231:.\Generated_Source\PSoC4/BLE_gatt.c ****                 CyBle_ApplCallback((uint32)CYBLE_EVT_GATTS_INDICATION_ENABLED, eventParam);
 470              		.loc 1 231 0
 471 0056 104B     		ldr	r3, .L12
 472 0058 1B68     		ldr	r3, [r3]
 473 005a 8222     		mov	r2, #130
 474 005c 5100     		lsl	r1, r2, #1
 475 005e 7A68     		ldr	r2, [r7, #4]
 476 0060 081C     		mov	r0, r1
 477 0062 111C     		mov	r1, r2
 478 0064 9847     		blx	r3
 479 0066 08E0     		b	.L9
 480              	.L10:
 232:.\Generated_Source\PSoC4/BLE_gatt.c ****             }
 233:.\Generated_Source\PSoC4/BLE_gatt.c ****             else
 234:.\Generated_Source\PSoC4/BLE_gatt.c ****             {
 235:.\Generated_Source\PSoC4/BLE_gatt.c ****                 CyBle_ApplCallback((uint32)CYBLE_EVT_GATTS_INDICATION_DISABLED, eventParam);
 481              		.loc 1 235 0
 482 0068 0B4B     		ldr	r3, .L12
 483 006a 1B68     		ldr	r3, [r3]
 484 006c 0622     		mov	r2, #6
 485 006e 111C     		mov	r1, r2
 486 0070 FF31     		add	r1, r1, #255
 487 0072 7A68     		ldr	r2, [r7, #4]
 488 0074 081C     		mov	r0, r1
 489 0076 111C     		mov	r1, r2
 490 0078 9847     		blx	r3
 491              	.L9:
 236:.\Generated_Source\PSoC4/BLE_gatt.c ****             }
 237:.\Generated_Source\PSoC4/BLE_gatt.c ****         }
 238:.\Generated_Source\PSoC4/BLE_gatt.c ****         cyBle_eventHandlerFlag &= (uint8)~CYBLE_CALLBACK;
 492              		.loc 1 238 0
 493 007a 084B     		ldr	r3, .L12+4
ARM GAS  C:\Users\Shahed\AppData\Local\Temp\ccT9luEu.s 			page 14


 494 007c 1B78     		ldrb	r3, [r3]
 495 007e DBB2     		uxtb	r3, r3
 496 0080 0122     		mov	r2, #1
 497 0082 9343     		bic	r3, r2
 498 0084 DAB2     		uxtb	r2, r3
 499 0086 054B     		ldr	r3, .L12+4
 500 0088 1A70     		strb	r2, [r3]
 501              	.L8:
 239:.\Generated_Source\PSoC4/BLE_gatt.c ****     }
 240:.\Generated_Source\PSoC4/BLE_gatt.c ****     return (gattErr);
 502              		.loc 1 240 0
 503 008a 3B1C     		mov	r3, r7
 504 008c 0F33     		add	r3, r3, #15
 505 008e 1B78     		ldrb	r3, [r3]
 241:.\Generated_Source\PSoC4/BLE_gatt.c **** }
 506              		.loc 1 241 0
 507 0090 181C     		mov	r0, r3
 508 0092 BD46     		mov	sp, r7
 509 0094 05B0     		add	sp, sp, #20
 510              		@ sp needed
 511 0096 90BD     		pop	{r4, r7, pc}
 512              	.L13:
 513              		.align	2
 514              	.L12:
 515 0098 00000000 		.word	CyBle_ApplCallback
 516 009c 00000000 		.word	cyBle_eventHandlerFlag
 517              		.cfi_endproc
 518              	.LFE3:
 519              		.size	CyBle_GattsWriteEventHandler, .-CyBle_GattsWriteEventHandler
 520              		.text
 521              	.Letext0:
 522              		.file 2 ".\\Generated_Source\\PSoC4\\cytypes.h"
 523              		.file 3 ".\\Generated_Source\\PSoC4\\BLE_Stack.h"
 524              		.file 4 ".\\Generated_Source\\PSoC4\\BLE_StackGatt.h"
 525              		.file 5 ".\\Generated_Source\\PSoC4\\BLE_StackGattServer.h"
 526              		.file 6 ".\\Generated_Source\\PSoC4\\BLE_StackGattDb.h"
 527              		.file 7 ".\\Generated_Source\\PSoC4\\BLE.h"
 528              		.file 8 ".\\Generated_Source\\PSoC4\\BLE_gatt.h"
 529              		.file 9 ".\\Generated_Source\\PSoC4\\BLE_dis.h"
 530              		.file 10 ".\\Generated_Source\\PSoC4\\BLE_eventHandler.h"