ARM GAS  C:\Users\Shahed\AppData\Local\Temp\ccw0qf94.s 			page 1


   1              		.cpu cortex-m0
   2              		.fpu softvfp
   3              		.eabi_attribute 20, 1
   4              		.eabi_attribute 21, 1
   5              		.eabi_attribute 23, 3
   6              		.eabi_attribute 24, 1
   7              		.eabi_attribute 25, 1
   8              		.eabi_attribute 26, 1
   9              		.eabi_attribute 30, 6
  10              		.eabi_attribute 34, 0
  11              		.eabi_attribute 18, 4
  12              		.code	16
  13              		.file	"main.c"
  14              		.text
  15              	.Ltext0:
  16              		.cfi_sections	.debug_frame
  17              		.section	.text.main,"ax",%progbits
  18              		.align	2
  19              		.global	main
  20              		.code	16
  21              		.thumb_func
  22              		.type	main, %function
  23              	main:
  24              	.LFB35:
  25              		.file 1 ".\\main.c"
   1:.\main.c      **** /*******************************************************************************
   2:.\main.c      **** * File Name: main.c
   3:.\main.c      **** *
   4:.\main.c      **** * Version: 1.0
   5:.\main.c      **** *
   6:.\main.c      **** * Description:
   7:.\main.c      **** *  This is the source code for the PSoC 4 BLE lab 2 - Setting up a Connection.
   8:.\main.c      **** *
   9:.\main.c      **** * Hardware Dependency:
  10:.\main.c      **** *  CY8CKIT-042 BLE Pioneer Kit
  11:.\main.c      **** *
  12:.\main.c      **** ********************************************************************************
  13:.\main.c      **** * Copyright 2014, Cypress Semiconductor Corporation.  All rights reserved.
  14:.\main.c      **** * You may use this file only in accordance with the license, terms, conditions,
  15:.\main.c      **** * disclaimers, and limitations in the end user license agreement accompanying
  16:.\main.c      **** * the software package with which this file was provided.
  17:.\main.c      **** *******************************************************************************/
  18:.\main.c      **** #include <project.h>
  19:.\main.c      **** 
  20:.\main.c      **** /***************************************
  21:.\main.c      **** *        API Constants
  22:.\main.c      **** ***************************************/
  23:.\main.c      **** #define NO_ALERT           (0u)
  24:.\main.c      **** #define MILD_ALERT         (1u)
  25:.\main.c      **** #define HIGH_ALERT         (2u)
  26:.\main.c      **** 
  27:.\main.c      **** #define NO_ALERT_COMPARE   (0u)
  28:.\main.c      **** #define MILD_ALERT_COMPARE (250u)
  29:.\main.c      **** #define HIGH_ALERT_COMPARE (500u)
  30:.\main.c      **** 
  31:.\main.c      **** /***************************************
  32:.\main.c      **** *        Function Prototypes
ARM GAS  C:\Users\Shahed\AppData\Local\Temp\ccw0qf94.s 			page 2


  33:.\main.c      **** ***************************************/
  34:.\main.c      **** void StackEventHandler(uint32 event, void* eventParam);
  35:.\main.c      **** void IasEventHandler(uint32 event, void* eventParam);
  36:.\main.c      **** void HandleAlertLEDs(uint8 status);
  37:.\main.c      **** 
  38:.\main.c      **** 
  39:.\main.c      **** /*******************************************************************************
  40:.\main.c      **** * Function Name: main
  41:.\main.c      **** ********************************************************************************
  42:.\main.c      **** *
  43:.\main.c      **** * Summary:
  44:.\main.c      **** *  Main function.
  45:.\main.c      **** *
  46:.\main.c      **** * Parameters:  
  47:.\main.c      **** *  None
  48:.\main.c      **** *
  49:.\main.c      **** * Return: 
  50:.\main.c      **** *  None
  51:.\main.c      **** *
  52:.\main.c      **** *******************************************************************************/
  53:.\main.c      **** int main()
  54:.\main.c      **** {
  26              		.loc 1 54 0
  27              		.cfi_startproc
  28 0000 80B5     		push	{r7, lr}
  29              		.cfi_def_cfa_offset 8
  30              		.cfi_offset 7, -8
  31              		.cfi_offset 14, -4
  32 0002 00AF     		add	r7, sp, #0
  33              		.cfi_def_cfa_register 7
  55:.\main.c      ****     CyGlobalIntEnable; 
  34              		.loc 1 55 0
  35              	@ 55 ".\main.c" 1
  36 0004 62B6     		CPSIE   i
  37              	@ 0 "" 2
  56:.\main.c      **** 
  57:.\main.c      ****     /* Start the BLE component and register StackEventHandler function */
  58:.\main.c      ****     CyBle_Start(StackEventHandler);
  38              		.loc 1 58 0
  39              		.code	16
  40 0006 064B     		ldr	r3, .L3
  41 0008 181C     		mov	r0, r3
  42 000a FFF7FEFF 		bl	CyBle_Start
  59:.\main.c      ****     
  60:.\main.c      ****     /* Start the PWM component */
  61:.\main.c      ****     PWM_Start();
  43              		.loc 1 61 0
  44 000e FFF7FEFF 		bl	PWM_Start
  62:.\main.c      **** 
  63:.\main.c      ****     /* Register IAS event handler function */
  64:.\main.c      ****     CyBle_IasRegisterAttrCallback(IasEventHandler);
  45              		.loc 1 64 0
  46 0012 044B     		ldr	r3, .L3+4
  47 0014 181C     		mov	r0, r3
  48 0016 FFF7FEFF 		bl	CyBle_IasRegisterAttrCallback
  49              	.L2:
  65:.\main.c      ****         
ARM GAS  C:\Users\Shahed\AppData\Local\Temp\ccw0qf94.s 			page 3


  66:.\main.c      ****     while(1)
  67:.\main.c      ****     {
  68:.\main.c      ****         /* Process all the pending BLE tasks. This single API call to 
  69:.\main.c      ****          * will service all the BLE stack events. This API MUST be called at least once
  70:.\main.c      ****          * in a BLE connection interval */
  71:.\main.c      ****         CyBle_ProcessEvents();
  50              		.loc 1 71 0 discriminator 1
  51 001a FFF7FEFF 		bl	CyBle_ProcessEvents
  72:.\main.c      ****     }
  52              		.loc 1 72 0 discriminator 1
  53 001e FCE7     		b	.L2
  54              	.L4:
  55              		.align	2
  56              	.L3:
  57 0020 00000000 		.word	StackEventHandler
  58 0024 00000000 		.word	IasEventHandler
  59              		.cfi_endproc
  60              	.LFE35:
  61              		.size	main, .-main
  62              		.section	.text.StackEventHandler,"ax",%progbits
  63              		.align	2
  64              		.global	StackEventHandler
  65              		.code	16
  66              		.thumb_func
  67              		.type	StackEventHandler, %function
  68              	StackEventHandler:
  69              	.LFB36:
  73:.\main.c      **** }
  74:.\main.c      **** 
  75:.\main.c      **** /*******************************************************************************
  76:.\main.c      **** * Function Name: StackEventHandler
  77:.\main.c      **** ********************************************************************************
  78:.\main.c      **** *
  79:.\main.c      **** * Summary:
  80:.\main.c      **** *  This is an event callback function to receive events from the BLE Component.
  81:.\main.c      **** *
  82:.\main.c      **** * Parameters:  
  83:.\main.c      **** *  uint8 event:       Event from the CYBLE component
  84:.\main.c      **** *  void* eventParams: A structure instance for corresponding event type. The 
  85:.\main.c      **** *                     list of event structure is described in the component 
  86:.\main.c      **** *                     datasheet.
  87:.\main.c      **** *
  88:.\main.c      **** * Return: 
  89:.\main.c      **** *  None
  90:.\main.c      **** *
  91:.\main.c      **** *******************************************************************************/
  92:.\main.c      **** void StackEventHandler(uint32 event, void *eventParam)
  93:.\main.c      **** {
  70              		.loc 1 93 0
  71              		.cfi_startproc
  72 0000 80B5     		push	{r7, lr}
  73              		.cfi_def_cfa_offset 8
  74              		.cfi_offset 7, -8
  75              		.cfi_offset 14, -4
  76 0002 82B0     		sub	sp, sp, #8
  77              		.cfi_def_cfa_offset 16
  78 0004 00AF     		add	r7, sp, #0
ARM GAS  C:\Users\Shahed\AppData\Local\Temp\ccw0qf94.s 			page 4


  79              		.cfi_def_cfa_register 7
  80 0006 7860     		str	r0, [r7, #4]
  81 0008 3960     		str	r1, [r7]
  94:.\main.c      ****     switch(event)
  82              		.loc 1 94 0
  83 000a 7B68     		ldr	r3, [r7, #4]
  84 000c 012B     		cmp	r3, #1
  85 000e 02D0     		beq	.L7
  86 0010 282B     		cmp	r3, #40
  87 0012 00D0     		beq	.L7
  95:.\main.c      ****     {
  96:.\main.c      ****         /* Mandatory events to be handled by Find Me Target design */
  97:.\main.c      ****         case CYBLE_EVT_STACK_ON:
  98:.\main.c      ****         case CYBLE_EVT_GAP_DEVICE_DISCONNECTED:
  99:.\main.c      ****             /* Start the BLE fast advertisement. */
 100:.\main.c      ****             CyBle_GappStartAdvertisement(CYBLE_ADVERTISING_FAST);
 101:.\main.c      ****             break;
 102:.\main.c      ****         
 103:.\main.c      ****         default:
 104:.\main.c      ****     	    break;
  88              		.loc 1 104 0
  89 0014 03E0     		b	.L5
  90              	.L7:
 100:.\main.c      ****             CyBle_GappStartAdvertisement(CYBLE_ADVERTISING_FAST);
  91              		.loc 1 100 0
  92 0016 0020     		mov	r0, #0
  93 0018 FFF7FEFF 		bl	CyBle_GappStartAdvertisement
 101:.\main.c      ****             break;
  94              		.loc 1 101 0
  95 001c C046     		mov	r8, r8
  96              	.L5:
 105:.\main.c      ****     }
 106:.\main.c      **** }
  97              		.loc 1 106 0
  98 001e BD46     		mov	sp, r7
  99 0020 02B0     		add	sp, sp, #8
 100              		@ sp needed
 101 0022 80BD     		pop	{r7, pc}
 102              		.cfi_endproc
 103              	.LFE36:
 104              		.size	StackEventHandler, .-StackEventHandler
 105              		.section	.text.IasEventHandler,"ax",%progbits
 106              		.align	2
 107              		.global	IasEventHandler
 108              		.code	16
 109              		.thumb_func
 110              		.type	IasEventHandler, %function
 111              	IasEventHandler:
 112              	.LFB37:
 107:.\main.c      **** 
 108:.\main.c      **** /*******************************************************************************
 109:.\main.c      **** * Function Name: IasEventHandler
 110:.\main.c      **** ********************************************************************************
 111:.\main.c      **** *
 112:.\main.c      **** * Summary:
 113:.\main.c      **** *  This is an event callback function to receive events from the BLE Component,
 114:.\main.c      **** *  which are specific to Immediate Alert Service.
ARM GAS  C:\Users\Shahed\AppData\Local\Temp\ccw0qf94.s 			page 5


 115:.\main.c      **** *
 116:.\main.c      **** * Parameters:  
 117:.\main.c      **** *  uint8 event:       Write Command event from the CYBLE component.
 118:.\main.c      **** *  void* eventParams: A structure instance of CYBLE_GATT_HANDLE_VALUE_PAIR_T
 119:.\main.c      **** *                     type.
 120:.\main.c      **** *
 121:.\main.c      **** * Return: 
 122:.\main.c      **** *  None
 123:.\main.c      **** *
 124:.\main.c      **** *******************************************************************************/
 125:.\main.c      **** void IasEventHandler(uint32 event, void *eventParam)
 126:.\main.c      **** {
 113              		.loc 1 126 0
 114              		.cfi_startproc
 115 0000 80B5     		push	{r7, lr}
 116              		.cfi_def_cfa_offset 8
 117              		.cfi_offset 7, -8
 118              		.cfi_offset 14, -4
 119 0002 84B0     		sub	sp, sp, #16
 120              		.cfi_def_cfa_offset 24
 121 0004 00AF     		add	r7, sp, #0
 122              		.cfi_def_cfa_register 7
 123 0006 7860     		str	r0, [r7, #4]
 124 0008 3960     		str	r1, [r7]
 127:.\main.c      ****     uint8 alertLevel;
 128:.\main.c      ****     
 129:.\main.c      ****     /* Alert Level Characteristic write event */
 130:.\main.c      ****     if(event == CYBLE_EVT_IASS_WRITE_CHAR_CMD)
 125              		.loc 1 130 0
 126 000a 7A68     		ldr	r2, [r7, #4]
 127 000c C223     		mov	r3, #194
 128 000e 5B00     		lsl	r3, r3, #1
 129 0010 9A42     		cmp	r2, r3
 130 0012 0CD1     		bne	.L9
 131:.\main.c      ****     {
 132:.\main.c      ****         /* Extract Alert Level value from the GATT DB using the 
 133:.\main.c      **** 		 * CYBLE_IAS_ALERT_LEVEL as a parameter to CyBle_IassGetCharacteristicValue
 134:.\main.c      **** 		 * routine. Store the Alert Level Characteristic value in "alertLevel"
 135:.\main.c      **** 		 * variable */
 136:.\main.c      ****         CyBle_IassGetCharacteristicValue(CYBLE_IAS_ALERT_LEVEL, sizeof(alertLevel), &alertLevel);
 131              		.loc 1 136 0
 132 0014 3B1C     		mov	r3, r7
 133 0016 0F33     		add	r3, r3, #15
 134 0018 0020     		mov	r0, #0
 135 001a 0121     		mov	r1, #1
 136 001c 1A1C     		mov	r2, r3
 137 001e FFF7FEFF 		bl	CyBle_IassGetCharacteristicValue
 137:.\main.c      ****         
 138:.\main.c      ****         /*Based on alert Level level recieved, Drive LED*/
 139:.\main.c      ****         HandleAlertLEDs(alertLevel);
 138              		.loc 1 139 0
 139 0022 3B1C     		mov	r3, r7
 140 0024 0F33     		add	r3, r3, #15
 141 0026 1B78     		ldrb	r3, [r3]
 142 0028 181C     		mov	r0, r3
 143 002a FFF7FEFF 		bl	HandleAlertLEDs
 144              	.L9:
ARM GAS  C:\Users\Shahed\AppData\Local\Temp\ccw0qf94.s 			page 6


 140:.\main.c      ****     }
 141:.\main.c      **** }
 145              		.loc 1 141 0
 146 002e BD46     		mov	sp, r7
 147 0030 04B0     		add	sp, sp, #16
 148              		@ sp needed
 149 0032 80BD     		pop	{r7, pc}
 150              		.cfi_endproc
 151              	.LFE37:
 152              		.size	IasEventHandler, .-IasEventHandler
 153              		.section	.text.HandleAlertLEDs,"ax",%progbits
 154              		.align	2
 155              		.global	HandleAlertLEDs
 156              		.code	16
 157              		.thumb_func
 158              		.type	HandleAlertLEDs, %function
 159              	HandleAlertLEDs:
 160              	.LFB38:
 142:.\main.c      **** 
 143:.\main.c      **** /*******************************************************************************
 144:.\main.c      **** * Function Name: HandleAlertLEDs
 145:.\main.c      **** ********************************************************************************
 146:.\main.c      **** *
 147:.\main.c      **** * Summary:
 148:.\main.c      **** *  This function drives the LED based on the alert level
 149:.\main.c      **** *
 150:.\main.c      **** * Parameters:  
 151:.\main.c      **** *  uint8 status:      Alert level 
 152:.\main.c      **** *
 153:.\main.c      **** * Return: 
 154:.\main.c      **** *  None
 155:.\main.c      **** *
 156:.\main.c      **** *******************************************************************************/
 157:.\main.c      **** void HandleAlertLEDs(uint8 status)
 158:.\main.c      **** {
 161              		.loc 1 158 0
 162              		.cfi_startproc
 163 0000 80B5     		push	{r7, lr}
 164              		.cfi_def_cfa_offset 8
 165              		.cfi_offset 7, -8
 166              		.cfi_offset 14, -4
 167 0002 82B0     		sub	sp, sp, #8
 168              		.cfi_def_cfa_offset 16
 169 0004 00AF     		add	r7, sp, #0
 170              		.cfi_def_cfa_register 7
 171 0006 021C     		mov	r2, r0
 172 0008 FB1D     		add	r3, r7, #7
 173 000a 1A70     		strb	r2, [r3]
 159:.\main.c      ****     /* Update Alert LED status based on IAS Alert level characteristic. */
 160:.\main.c      ****     switch(status)
 174              		.loc 1 160 0
 175 000c FB1D     		add	r3, r7, #7
 176 000e 1B78     		ldrb	r3, [r3]
 177 0010 012B     		cmp	r3, #1
 178 0012 07D0     		beq	.L13
 179 0014 022B     		cmp	r3, #2
 180 0016 09D0     		beq	.L14
ARM GAS  C:\Users\Shahed\AppData\Local\Temp\ccw0qf94.s 			page 7


 181 0018 002B     		cmp	r3, #0
 182 001a 0DD1     		bne	.L11
 161:.\main.c      ****     {
 162:.\main.c      ****         case NO_ALERT:
 163:.\main.c      ****             PWM_WriteCompare(NO_ALERT_COMPARE);
 183              		.loc 1 163 0
 184 001c 0020     		mov	r0, #0
 185 001e FFF7FEFF 		bl	PWM_WriteCompare
 164:.\main.c      ****             break;
 186              		.loc 1 164 0
 187 0022 09E0     		b	.L11
 188              	.L13:
 165:.\main.c      **** 
 166:.\main.c      ****         case MILD_ALERT:
 167:.\main.c      ****             PWM_WriteCompare(MILD_ALERT_COMPARE);
 189              		.loc 1 167 0
 190 0024 FA20     		mov	r0, #250
 191 0026 FFF7FEFF 		bl	PWM_WriteCompare
 168:.\main.c      ****             break;
 192              		.loc 1 168 0
 193 002a 05E0     		b	.L11
 194              	.L14:
 169:.\main.c      ****             
 170:.\main.c      ****         case HIGH_ALERT:
 171:.\main.c      ****             PWM_WriteCompare(HIGH_ALERT_COMPARE);
 195              		.loc 1 171 0
 196 002c FA23     		mov	r3, #250
 197 002e 5B00     		lsl	r3, r3, #1
 198 0030 181C     		mov	r0, r3
 199 0032 FFF7FEFF 		bl	PWM_WriteCompare
 172:.\main.c      ****             break;                
 200              		.loc 1 172 0
 201 0036 C046     		mov	r8, r8
 202              	.L11:
 173:.\main.c      ****     }
 174:.\main.c      **** }
 203              		.loc 1 174 0
 204 0038 BD46     		mov	sp, r7
 205 003a 02B0     		add	sp, sp, #8
 206              		@ sp needed
 207 003c 80BD     		pop	{r7, pc}
 208              		.cfi_endproc
 209              	.LFE38:
 210              		.size	HandleAlertLEDs, .-HandleAlertLEDs
 211 003e C046     		.text
 212              	.Letext0:
 213              		.file 2 ".\\Generated_Source\\PSoC4/cytypes.h"
 214              		.file 3 ".\\Generated_Source\\PSoC4/BLE_Stack.h"
 215              		.file 4 ".\\Generated_Source\\PSoC4/BLE_ias.h"
 216              		.file 5 ".\\Generated_Source\\PSoC4/BLE_eventHandler.h"