ARM GAS  C:\Users\Shahed\AppData\Local\Temp\ccvhJTai.s 			page 1


   1              		.cpu cortex-m0
   2              		.fpu softvfp
   3              		.eabi_attribute 20, 1
   4              		.eabi_attribute 21, 1
   5              		.eabi_attribute 23, 3
   6              		.eabi_attribute 24, 1
   7              		.eabi_attribute 25, 1
   8              		.eabi_attribute 26, 1
   9              		.eabi_attribute 30, 6
  10              		.eabi_attribute 34, 0
  11              		.eabi_attribute 18, 4
  12              		.code	16
  13              		.file	"BLE_1_gatt.c"
  14              		.text
  15              	.Ltext0:
  16              		.cfi_sections	.debug_frame
  17              		.comm	cyBle_state,1,1
  18              		.global	cyBle_gatts
  19              		.section	.rodata
  20              		.align	2
  21              		.type	cyBle_gatts, %object
  22              		.size	cyBle_gatts, 6
  23              	cyBle_gatts:
  24 0000 0800     		.short	8
  25 0002 0A00     		.short	10
  26 0004 0B00     		.short	11
  27              		.data
  28              		.align	2
  29              		.type	cyBle_attValues, %object
  30              		.size	cyBle_attValues, 24
  31              	cyBle_attValues:
  32 0000 42       		.byte	66
  33 0001 4C       		.byte	76
  34 0002 45       		.byte	69
  35 0003 20       		.byte	32
  36 0004 4C       		.byte	76
  37 0005 61       		.byte	97
  38 0006 62       		.byte	98
  39 0007 20       		.byte	32
  40 0008 32       		.byte	50
  41 0009 00       		.byte	0
  42 000a 02       		.byte	2
  43 000b 06       		.byte	6
  44 000c 00       		.byte	0
  45 000d 28       		.byte	40
  46 000e 00       		.byte	0
  47 000f 00       		.byte	0
  48 0010 00       		.byte	0
  49 0011 E8       		.byte	-24
  50 0012 03       		.byte	3
  51 0013 00       		.byte	0
  52 0014 00       		.byte	0
  53 0015 00       		.byte	0
  54 0016 00       		.byte	0
  55 0017 00       		.byte	0
  56              		.global	cyBle_attValuesCCCDFlashMemory
  57              		.section	.rodata
ARM GAS  C:\Users\Shahed\AppData\Local\Temp\ccvhJTai.s 			page 2


  58 0006 00000000 		.align	7
  58      00000000 
  58      00000000 
  58      00000000 
  58      00000000 
  59              		.type	cyBle_attValuesCCCDFlashMemory, %object
  60              		.size	cyBle_attValuesCCCDFlashMemory, 10
  61              	cyBle_attValuesCCCDFlashMemory:
  62 0080 00000000 		.space	10
  62      00000000 
  62      0000
  63              		.comm	cyBle_attValuesCCCD,2,4
  64              		.global	cyBle_gattDB
  65 008a 0000     		.align	2
  66              		.type	cyBle_gattDB, %object
  67              		.size	cyBle_gattDB, 280
  68              	cyBle_gattDB:
  69 008c 0100     		.short	1
  70 008e 0028     		.short	10240
  71 0090 01000000 		.word	1
  72 0094 0700     		.short	7
  73 0096 0000     		.space	2
  74 0098 0018     		.short	6144
  75 009a 0000     		.space	2
  76 009c 00000000 		.word	0
  77 00a0 0200     		.short	2
  78 00a2 0328     		.short	10243
  79 00a4 01020000 		.word	513
  80 00a8 0300     		.short	3
  81 00aa 0000     		.space	2
  82 00ac 002A     		.short	10752
  83 00ae 0000     		.space	2
  84 00b0 00000000 		.word	0
  85 00b4 0300     		.short	3
  86 00b6 002A     		.short	10752
  87 00b8 01020000 		.word	513
  88 00bc 0300     		.short	3
  89 00be 0000     		.space	2
  90 00c0 0900     		.short	9
  91 00c2 0000     		.space	2
  92 00c4 00000000 		.word	cyBle_attValues
  93 00c8 0400     		.short	4
  94 00ca 0328     		.short	10243
  95 00cc 01020000 		.word	513
  96 00d0 0500     		.short	5
  97 00d2 0000     		.space	2
  98 00d4 012A     		.short	10753
  99 00d6 0000     		.space	2
 100 00d8 00000000 		.word	0
 101 00dc 0500     		.short	5
 102 00de 012A     		.short	10753
 103 00e0 01020000 		.word	513
 104 00e4 0500     		.short	5
 105 00e6 0000     		.space	2
 106 00e8 0200     		.short	2
 107 00ea 0000     		.space	2
 108 00ec 09000000 		.word	cyBle_attValues+9
ARM GAS  C:\Users\Shahed\AppData\Local\Temp\ccvhJTai.s 			page 3


 109 00f0 0600     		.short	6
 110 00f2 0328     		.short	10243
 111 00f4 01020000 		.word	513
 112 00f8 0700     		.short	7
 113 00fa 0000     		.space	2
 114 00fc 042A     		.short	10756
 115 00fe 0000     		.space	2
 116 0100 00000000 		.word	0
 117 0104 0700     		.short	7
 118 0106 042A     		.short	10756
 119 0108 01020000 		.word	513
 120 010c 0700     		.short	7
 121 010e 0000     		.space	2
 122 0110 0800     		.short	8
 123 0112 0000     		.space	2
 124 0114 0B000000 		.word	cyBle_attValues+11
 125 0118 0800     		.short	8
 126 011a 0028     		.short	10240
 127 011c 01000000 		.word	1
 128 0120 0B00     		.short	11
 129 0122 0000     		.space	2
 130 0124 0118     		.short	6145
 131 0126 0000     		.space	2
 132 0128 00000000 		.word	0
 133 012c 0900     		.short	9
 134 012e 0328     		.short	10243
 135 0130 01220000 		.word	8705
 136 0134 0B00     		.short	11
 137 0136 0000     		.space	2
 138 0138 052A     		.short	10757
 139 013a 0000     		.space	2
 140 013c 00000000 		.word	0
 141 0140 0A00     		.short	10
 142 0142 052A     		.short	10757
 143 0144 01220000 		.word	8705
 144 0148 0B00     		.short	11
 145 014a 0000     		.space	2
 146 014c 0400     		.short	4
 147 014e 0000     		.space	2
 148 0150 13000000 		.word	cyBle_attValues+19
 149 0154 0B00     		.short	11
 150 0156 0229     		.short	10498
 151 0158 040A0000 		.word	2564
 152 015c 0B00     		.short	11
 153 015e 0000     		.space	2
 154 0160 0200     		.short	2
 155 0162 0000     		.space	2
 156 0164 00000000 		.word	cyBle_attValuesCCCD
 157 0168 0C00     		.short	12
 158 016a 0028     		.short	10240
 159 016c 01000000 		.word	1
 160 0170 0E00     		.short	14
 161 0172 0000     		.space	2
 162 0174 0218     		.short	6146
 163 0176 0000     		.space	2
 164 0178 00000000 		.word	0
 165 017c 0D00     		.short	13
ARM GAS  C:\Users\Shahed\AppData\Local\Temp\ccvhJTai.s 			page 4


 166 017e 0328     		.short	10243
 167 0180 01040000 		.word	1025
 168 0184 0E00     		.short	14
 169 0186 0000     		.space	2
 170 0188 062A     		.short	10758
 171 018a 0000     		.space	2
 172 018c 00000000 		.word	0
 173 0190 0E00     		.short	14
 174 0192 062A     		.short	10758
 175 0194 02040000 		.word	1026
 176 0198 0E00     		.short	14
 177 019a 0000     		.space	2
 178 019c 0100     		.short	1
 179 019e 0000     		.space	2
 180 01a0 17000000 		.word	cyBle_attValues+23
 181 01a4 00000000 		.section	.text.CyBle_GattsReInitGattDb,"ax",%progbits
 181      00000000 
 181      00000000 
 181      00000000 
 181      00000000 
 182              		.align	2
 183              		.global	CyBle_GattsReInitGattDb
 184              		.code	16
 185              		.thumb_func
 186              		.type	CyBle_GattsReInitGattDb, %function
 187              	CyBle_GattsReInitGattDb:
 188              	.LFB2:
 189              		.file 1 ".\\Generated_Source\\PSoC4\\BLE_1_gatt.c"
   1:.\Generated_Source\PSoC4/BLE_1_gatt.c **** /*******************************************************************************
   2:.\Generated_Source\PSoC4/BLE_1_gatt.c **** File Name: CYBLE_gatt.c
   3:.\Generated_Source\PSoC4/BLE_1_gatt.c **** Version 1.20
   4:.\Generated_Source\PSoC4/BLE_1_gatt.c **** 
   5:.\Generated_Source\PSoC4/BLE_1_gatt.c **** Description:
   6:.\Generated_Source\PSoC4/BLE_1_gatt.c ****  This file contains the source code for the GATT API of the BLE Component.
   7:.\Generated_Source\PSoC4/BLE_1_gatt.c **** 
   8:.\Generated_Source\PSoC4/BLE_1_gatt.c **** ********************************************************************************
   9:.\Generated_Source\PSoC4/BLE_1_gatt.c **** Copyright 2014-2015, Cypress Semiconductor Corporation.  All rights reserved.
  10:.\Generated_Source\PSoC4/BLE_1_gatt.c **** You may use this file only in accordance with the license, terms, conditions,
  11:.\Generated_Source\PSoC4/BLE_1_gatt.c **** disclaimers, and limitations in the end user license agreement accompanying
  12:.\Generated_Source\PSoC4/BLE_1_gatt.c **** the software package with which this file was provided.
  13:.\Generated_Source\PSoC4/BLE_1_gatt.c **** *******************************************************************************/
  14:.\Generated_Source\PSoC4/BLE_1_gatt.c **** 
  15:.\Generated_Source\PSoC4/BLE_1_gatt.c **** 
  16:.\Generated_Source\PSoC4/BLE_1_gatt.c **** #include "BLE_1_eventHandler.h"
  17:.\Generated_Source\PSoC4/BLE_1_gatt.c **** 
  18:.\Generated_Source\PSoC4/BLE_1_gatt.c **** 
  19:.\Generated_Source\PSoC4/BLE_1_gatt.c **** /***************************************
  20:.\Generated_Source\PSoC4/BLE_1_gatt.c **** ##Global variables
  21:.\Generated_Source\PSoC4/BLE_1_gatt.c **** ***************************************/
  22:.\Generated_Source\PSoC4/BLE_1_gatt.c **** 
  23:.\Generated_Source\PSoC4/BLE_1_gatt.c **** CYBLE_STATE_T cyBle_state;
  24:.\Generated_Source\PSoC4/BLE_1_gatt.c **** 
  25:.\Generated_Source\PSoC4/BLE_1_gatt.c **** 
  26:.\Generated_Source\PSoC4/BLE_1_gatt.c **** #if(CYBLE_GATT_ROLE_SERVER)
  27:.\Generated_Source\PSoC4/BLE_1_gatt.c ****     
  28:.\Generated_Source\PSoC4/BLE_1_gatt.c ****     const CYBLE_GATTS_T cyBle_gatts =
  29:.\Generated_Source\PSoC4/BLE_1_gatt.c **** {
ARM GAS  C:\Users\Shahed\AppData\Local\Temp\ccvhJTai.s 			page 5


  30:.\Generated_Source\PSoC4/BLE_1_gatt.c ****     0x0008u,    /* Handle of the GATT service */
  31:.\Generated_Source\PSoC4/BLE_1_gatt.c ****     0x000Au,    /* Handle of the Service Changed characteristic */
  32:.\Generated_Source\PSoC4/BLE_1_gatt.c ****     0x000Bu,    /* Handle of the Client Characteristic Configuration descriptor */
  33:.\Generated_Source\PSoC4/BLE_1_gatt.c **** };
  34:.\Generated_Source\PSoC4/BLE_1_gatt.c ****     
  35:.\Generated_Source\PSoC4/BLE_1_gatt.c ****     static uint8 cyBle_attValues[0x18u] = {
  36:.\Generated_Source\PSoC4/BLE_1_gatt.c **** /* Device Name */
  37:.\Generated_Source\PSoC4/BLE_1_gatt.c **** (uint8)'B', (uint8)'L', (uint8)'E', (uint8)' ', (uint8)'L', (uint8)'a', (uint8)'b', (uint8)' ', (ui
  38:.\Generated_Source\PSoC4/BLE_1_gatt.c **** 
  39:.\Generated_Source\PSoC4/BLE_1_gatt.c **** /* Appearance */
  40:.\Generated_Source\PSoC4/BLE_1_gatt.c **** 0x00u, 0x02u, 
  41:.\Generated_Source\PSoC4/BLE_1_gatt.c **** 
  42:.\Generated_Source\PSoC4/BLE_1_gatt.c **** /* Peripheral Preferred Connection Parameters */
  43:.\Generated_Source\PSoC4/BLE_1_gatt.c **** 0x06u, 0x00u, 0x28u, 0x00u, 0x00u, 0x00u, 0xE8u, 0x03u, 
  44:.\Generated_Source\PSoC4/BLE_1_gatt.c **** 
  45:.\Generated_Source\PSoC4/BLE_1_gatt.c **** /* Service Changed */
  46:.\Generated_Source\PSoC4/BLE_1_gatt.c **** 0x00u, 0x00u, 0x00u, 0x00u, 
  47:.\Generated_Source\PSoC4/BLE_1_gatt.c **** 
  48:.\Generated_Source\PSoC4/BLE_1_gatt.c **** /* Alert Level */
  49:.\Generated_Source\PSoC4/BLE_1_gatt.c **** 0x00u, 
  50:.\Generated_Source\PSoC4/BLE_1_gatt.c **** 
  51:.\Generated_Source\PSoC4/BLE_1_gatt.c **** };
  52:.\Generated_Source\PSoC4/BLE_1_gatt.c **** 
  53:.\Generated_Source\PSoC4/BLE_1_gatt.c **** #if defined(__GNUC__) || defined(__ARMCC_VERSION)
  54:.\Generated_Source\PSoC4/BLE_1_gatt.c **** const uint8 cyBle_attValuesCCCDFlashMemory[CYBLE_GAP_MAX_BONDED_DEVICE + 1u][CYBLE_GATT_DB_CCCD_COU
  55:.\Generated_Source\PSoC4/BLE_1_gatt.c **** #elif defined(__ICCARM__)
  56:.\Generated_Source\PSoC4/BLE_1_gatt.c **** /* The cyBle_attValuesCCCDFlashMemory[] should be aligned to the size of a Flash row */
  57:.\Generated_Source\PSoC4/BLE_1_gatt.c **** #pragma data_alignment=CY_FLASH_SIZEOF_ROW
  58:.\Generated_Source\PSoC4/BLE_1_gatt.c **** const uint8 cyBle_attValuesCCCDFlashMemory[CYBLE_GAP_MAX_BONDED_DEVICE + 1u][CYBLE_GATT_DB_CCCD_COU
  59:.\Generated_Source\PSoC4/BLE_1_gatt.c **** #endif /* defined(__GNUC__) || defined(__ARMCC_VERSION) */
  60:.\Generated_Source\PSoC4/BLE_1_gatt.c **** {
  61:.\Generated_Source\PSoC4/BLE_1_gatt.c **** /* Client Characteristic Configuration */
  62:.\Generated_Source\PSoC4/BLE_1_gatt.c **** 0x00u, 0x00u, 
  63:.\Generated_Source\PSoC4/BLE_1_gatt.c **** 
  64:.\Generated_Source\PSoC4/BLE_1_gatt.c **** },
  65:.\Generated_Source\PSoC4/BLE_1_gatt.c **** {
  66:.\Generated_Source\PSoC4/BLE_1_gatt.c **** /* Client Characteristic Configuration */
  67:.\Generated_Source\PSoC4/BLE_1_gatt.c **** 0x00u, 0x00u, 
  68:.\Generated_Source\PSoC4/BLE_1_gatt.c **** 
  69:.\Generated_Source\PSoC4/BLE_1_gatt.c **** },
  70:.\Generated_Source\PSoC4/BLE_1_gatt.c **** {
  71:.\Generated_Source\PSoC4/BLE_1_gatt.c **** /* Client Characteristic Configuration */
  72:.\Generated_Source\PSoC4/BLE_1_gatt.c **** 0x00u, 0x00u, 
  73:.\Generated_Source\PSoC4/BLE_1_gatt.c **** 
  74:.\Generated_Source\PSoC4/BLE_1_gatt.c **** },
  75:.\Generated_Source\PSoC4/BLE_1_gatt.c **** {
  76:.\Generated_Source\PSoC4/BLE_1_gatt.c **** /* Client Characteristic Configuration */
  77:.\Generated_Source\PSoC4/BLE_1_gatt.c **** 0x00u, 0x00u, 
  78:.\Generated_Source\PSoC4/BLE_1_gatt.c **** 
  79:.\Generated_Source\PSoC4/BLE_1_gatt.c **** },
  80:.\Generated_Source\PSoC4/BLE_1_gatt.c **** {
  81:.\Generated_Source\PSoC4/BLE_1_gatt.c **** /* Client Characteristic Configuration */
  82:.\Generated_Source\PSoC4/BLE_1_gatt.c **** 0x00u, 0x00u, 
  83:.\Generated_Source\PSoC4/BLE_1_gatt.c **** 
  84:.\Generated_Source\PSoC4/BLE_1_gatt.c **** },
  85:.\Generated_Source\PSoC4/BLE_1_gatt.c **** };
  86:.\Generated_Source\PSoC4/BLE_1_gatt.c **** uint8 cyBle_attValuesCCCD[CYBLE_GATT_DB_CCCD_COUNT];
ARM GAS  C:\Users\Shahed\AppData\Local\Temp\ccvhJTai.s 			page 6


  87:.\Generated_Source\PSoC4/BLE_1_gatt.c **** 
  88:.\Generated_Source\PSoC4/BLE_1_gatt.c **** const CYBLE_GATTS_DB_T cyBle_gattDB[0x0Eu] = {
  89:.\Generated_Source\PSoC4/BLE_1_gatt.c **** { 0x0001u, 0x2800u /* Primary service                     */, 0x00000001u /*        */, 0x0007u, {{
  90:.\Generated_Source\PSoC4/BLE_1_gatt.c **** { 0x0002u, 0x2803u /* Characteristic                      */, 0x00000201u /* rd     */, 0x0003u, {{
  91:.\Generated_Source\PSoC4/BLE_1_gatt.c **** { 0x0003u, 0x2A00u /* Device Name                         */, 0x00000201u /* rd     */, 0x0003u, {{
  92:.\Generated_Source\PSoC4/BLE_1_gatt.c **** { 0x0004u, 0x2803u /* Characteristic                      */, 0x00000201u /* rd     */, 0x0005u, {{
  93:.\Generated_Source\PSoC4/BLE_1_gatt.c **** { 0x0005u, 0x2A01u /* Appearance                          */, 0x00000201u /* rd     */, 0x0005u, {{
  94:.\Generated_Source\PSoC4/BLE_1_gatt.c **** { 0x0006u, 0x2803u /* Characteristic                      */, 0x00000201u /* rd     */, 0x0007u, {{
  95:.\Generated_Source\PSoC4/BLE_1_gatt.c **** { 0x0007u, 0x2A04u /* Peripheral Preferred Connection Par */, 0x00000201u /* rd     */, 0x0007u, {{
  96:.\Generated_Source\PSoC4/BLE_1_gatt.c **** { 0x0008u, 0x2800u /* Primary service                     */, 0x00000001u /*        */, 0x000Bu, {{
  97:.\Generated_Source\PSoC4/BLE_1_gatt.c **** { 0x0009u, 0x2803u /* Characteristic                      */, 0x00002201u /* rd,ind */, 0x000Bu, {{
  98:.\Generated_Source\PSoC4/BLE_1_gatt.c **** { 0x000Au, 0x2A05u /* Service Changed                     */, 0x00002201u /* rd,ind */, 0x000Bu, {{
  99:.\Generated_Source\PSoC4/BLE_1_gatt.c **** { 0x000Bu, 0x2902u /* Client Characteristic Configuration */, 0x00000A04u /* rd,wr  */, 0x000Bu, {{
 100:.\Generated_Source\PSoC4/BLE_1_gatt.c **** { 0x000Cu, 0x2800u /* Primary service                     */, 0x00000001u /*        */, 0x000Eu, {{
 101:.\Generated_Source\PSoC4/BLE_1_gatt.c **** { 0x000Du, 0x2803u /* Characteristic                      */, 0x00000401u /* wwr    */, 0x000Eu, {{
 102:.\Generated_Source\PSoC4/BLE_1_gatt.c **** { 0x000Eu, 0x2A06u /* Alert Level                         */, 0x00000402u /* wwr    */, 0x000Eu, {{
 103:.\Generated_Source\PSoC4/BLE_1_gatt.c **** };
 104:.\Generated_Source\PSoC4/BLE_1_gatt.c **** 
 105:.\Generated_Source\PSoC4/BLE_1_gatt.c **** 
 106:.\Generated_Source\PSoC4/BLE_1_gatt.c **** #endif /* (CYBLE_GATT_ROLE_SERVER) */
 107:.\Generated_Source\PSoC4/BLE_1_gatt.c **** 
 108:.\Generated_Source\PSoC4/BLE_1_gatt.c **** #if(CYBLE_GATT_ROLE_CLIENT)
 109:.\Generated_Source\PSoC4/BLE_1_gatt.c ****     
 110:.\Generated_Source\PSoC4/BLE_1_gatt.c **** CYBLE_CLIENT_STATE_T cyBle_clientState;
 111:.\Generated_Source\PSoC4/BLE_1_gatt.c **** CYBLE_GATTC_T cyBle_gattc;
 112:.\Generated_Source\PSoC4/BLE_1_gatt.c ****     
 113:.\Generated_Source\PSoC4/BLE_1_gatt.c **** #endif /* (CYBLE_GATT_ROLE_CLIENT) */
 114:.\Generated_Source\PSoC4/BLE_1_gatt.c **** 
 115:.\Generated_Source\PSoC4/BLE_1_gatt.c **** 
 116:.\Generated_Source\PSoC4/BLE_1_gatt.c **** #if(CYBLE_GATT_ROLE_SERVER)
 117:.\Generated_Source\PSoC4/BLE_1_gatt.c **** 
 118:.\Generated_Source\PSoC4/BLE_1_gatt.c **** /****************************************************************************** 
 119:.\Generated_Source\PSoC4/BLE_1_gatt.c **** ##Function Name: CyBle_GattsReInitGattDb
 120:.\Generated_Source\PSoC4/BLE_1_gatt.c **** *******************************************************************************
 121:.\Generated_Source\PSoC4/BLE_1_gatt.c **** 
 122:.\Generated_Source\PSoC4/BLE_1_gatt.c **** Summary:
 123:.\Generated_Source\PSoC4/BLE_1_gatt.c ****  Reinitializes the GATT database.
 124:.\Generated_Source\PSoC4/BLE_1_gatt.c **** 
 125:.\Generated_Source\PSoC4/BLE_1_gatt.c **** Parameters:
 126:.\Generated_Source\PSoC4/BLE_1_gatt.c ****  None
 127:.\Generated_Source\PSoC4/BLE_1_gatt.c **** 
 128:.\Generated_Source\PSoC4/BLE_1_gatt.c **** Return:
 129:.\Generated_Source\PSoC4/BLE_1_gatt.c ****  CYBLE_API_RESULT_T: An API result states if the API succeeded or failed with
 130:.\Generated_Source\PSoC4/BLE_1_gatt.c ****  error codes:
 131:.\Generated_Source\PSoC4/BLE_1_gatt.c ****   * CYBLE_ERROR_OK: GATT database was reinitialized successfully
 132:.\Generated_Source\PSoC4/BLE_1_gatt.c ****   * CYBLE_ERROR_INVALID_STATE: If the function is called in any state except
 133:.\Generated_Source\PSoC4/BLE_1_gatt.c ****                                 CYBLE_STATE_DISCONNECTED.
 134:.\Generated_Source\PSoC4/BLE_1_gatt.c ****   * Any of the CyBle_GattsDbRegister() stack API function return values.
 135:.\Generated_Source\PSoC4/BLE_1_gatt.c **** 
 136:.\Generated_Source\PSoC4/BLE_1_gatt.c **** ******************************************************************************/
 137:.\Generated_Source\PSoC4/BLE_1_gatt.c **** CYBLE_API_RESULT_T CyBle_GattsReInitGattDb(void)
 138:.\Generated_Source\PSoC4/BLE_1_gatt.c **** {
 190              		.loc 1 138 0
 191              		.cfi_startproc
 192 0000 90B5     		push	{r4, r7, lr}
 193              		.cfi_def_cfa_offset 12
 194              		.cfi_offset 4, -12
ARM GAS  C:\Users\Shahed\AppData\Local\Temp\ccvhJTai.s 			page 7


 195              		.cfi_offset 7, -8
 196              		.cfi_offset 14, -4
 197 0002 83B0     		sub	sp, sp, #12
 198              		.cfi_def_cfa_offset 24
 199 0004 00AF     		add	r7, sp, #0
 200              		.cfi_def_cfa_register 7
 139:.\Generated_Source\PSoC4/BLE_1_gatt.c ****     CYBLE_API_RESULT_T apiResult;
 140:.\Generated_Source\PSoC4/BLE_1_gatt.c ****     
 141:.\Generated_Source\PSoC4/BLE_1_gatt.c ****     if(CYBLE_STATE_DISCONNECTED == CyBle_GetState())
 201              		.loc 1 141 0
 202 0006 0C4B     		ldr	r3, .L5
 203 0008 1B78     		ldrb	r3, [r3]
 204 000a 042B     		cmp	r3, #4
 205 000c 09D1     		bne	.L2
 142:.\Generated_Source\PSoC4/BLE_1_gatt.c ****     {
 143:.\Generated_Source\PSoC4/BLE_1_gatt.c ****         apiResult = CyBle_GattsDbRegister(cyBle_gattDB, CYBLE_GATT_DB_INDEX_COUNT, CYBLE_GATT_DB_MA
 206              		.loc 1 143 0
 207 000e BC1D     		add	r4, r7, #6
 208 0010 0A4B     		ldr	r3, .L5+4
 209 0012 181C     		mov	r0, r3
 210 0014 0E21     		mov	r1, #14
 211 0016 0922     		mov	r2, #9
 212 0018 FFF7FEFF 		bl	CyBle_GattsDbRegister
 213 001c 031C     		mov	r3, r0
 214 001e 2380     		strh	r3, [r4]
 215 0020 03E0     		b	.L3
 216              	.L2:
 144:.\Generated_Source\PSoC4/BLE_1_gatt.c ****     }
 145:.\Generated_Source\PSoC4/BLE_1_gatt.c ****     else
 146:.\Generated_Source\PSoC4/BLE_1_gatt.c ****     {
 147:.\Generated_Source\PSoC4/BLE_1_gatt.c ****         apiResult = CYBLE_ERROR_INVALID_STATE;
 217              		.loc 1 147 0
 218 0022 BB1D     		add	r3, r7, #6
 219 0024 8322     		mov	r2, #131
 220 0026 5200     		lsl	r2, r2, #1
 221 0028 1A80     		strh	r2, [r3]
 222              	.L3:
 148:.\Generated_Source\PSoC4/BLE_1_gatt.c ****     }
 149:.\Generated_Source\PSoC4/BLE_1_gatt.c ****     
 150:.\Generated_Source\PSoC4/BLE_1_gatt.c ****     return(apiResult);
 223              		.loc 1 150 0
 224 002a BB1D     		add	r3, r7, #6
 225 002c 1B88     		ldrh	r3, [r3]
 151:.\Generated_Source\PSoC4/BLE_1_gatt.c **** }
 226              		.loc 1 151 0
 227 002e 181C     		mov	r0, r3
 228 0030 BD46     		mov	sp, r7
 229 0032 03B0     		add	sp, sp, #12
 230              		@ sp needed
 231 0034 90BD     		pop	{r4, r7, pc}
 232              	.L6:
 233 0036 C046     		.align	2
 234              	.L5:
 235 0038 00000000 		.word	cyBle_state
 236 003c 00000000 		.word	cyBle_gattDB
 237              		.cfi_endproc
 238              	.LFE2:
ARM GAS  C:\Users\Shahed\AppData\Local\Temp\ccvhJTai.s 			page 8


 239              		.size	CyBle_GattsReInitGattDb, .-CyBle_GattsReInitGattDb
 240              		.section	.text.CyBle_GattsWriteEventHandler,"ax",%progbits
 241              		.align	2
 242              		.global	CyBle_GattsWriteEventHandler
 243              		.code	16
 244              		.thumb_func
 245              		.type	CyBle_GattsWriteEventHandler, %function
 246              	CyBle_GattsWriteEventHandler:
 247              	.LFB3:
 152:.\Generated_Source\PSoC4/BLE_1_gatt.c **** 
 153:.\Generated_Source\PSoC4/BLE_1_gatt.c **** 
 154:.\Generated_Source\PSoC4/BLE_1_gatt.c **** /****************************************************************************** 
 155:.\Generated_Source\PSoC4/BLE_1_gatt.c **** ##Function Name: CyBle_GattsWriteEventHandler
 156:.\Generated_Source\PSoC4/BLE_1_gatt.c **** *******************************************************************************
 157:.\Generated_Source\PSoC4/BLE_1_gatt.c **** 
 158:.\Generated_Source\PSoC4/BLE_1_gatt.c **** Summary:
 159:.\Generated_Source\PSoC4/BLE_1_gatt.c ****  Handles the Write Request Event for GATT service.
 160:.\Generated_Source\PSoC4/BLE_1_gatt.c **** 
 161:.\Generated_Source\PSoC4/BLE_1_gatt.c **** Parameters:
 162:.\Generated_Source\PSoC4/BLE_1_gatt.c ****  *eventParam: The pointer to the data structure specified by the event.
 163:.\Generated_Source\PSoC4/BLE_1_gatt.c **** 
 164:.\Generated_Source\PSoC4/BLE_1_gatt.c **** Return:
 165:.\Generated_Source\PSoC4/BLE_1_gatt.c ****  * CYBLE_GATT_ERR_CODE_T: An API result returns one of the following status 
 166:.\Generated_Source\PSoC4/BLE_1_gatt.c ****     values
 167:.\Generated_Source\PSoC4/BLE_1_gatt.c ****  * CYBLE_GATT_ERR_NONE - Write is successful.
 168:.\Generated_Source\PSoC4/BLE_1_gatt.c **** 
 169:.\Generated_Source\PSoC4/BLE_1_gatt.c **** ******************************************************************************/
 170:.\Generated_Source\PSoC4/BLE_1_gatt.c **** CYBLE_GATT_ERR_CODE_T CyBle_GattsWriteEventHandler(CYBLE_GATTS_WRITE_REQ_PARAM_T *eventParam)
 171:.\Generated_Source\PSoC4/BLE_1_gatt.c **** {
 248              		.loc 1 171 0
 249              		.cfi_startproc
 250 0000 90B5     		push	{r4, r7, lr}
 251              		.cfi_def_cfa_offset 12
 252              		.cfi_offset 4, -12
 253              		.cfi_offset 7, -8
 254              		.cfi_offset 14, -4
 255 0002 85B0     		sub	sp, sp, #20
 256              		.cfi_def_cfa_offset 32
 257 0004 00AF     		add	r7, sp, #0
 258              		.cfi_def_cfa_register 7
 259 0006 7860     		str	r0, [r7, #4]
 172:.\Generated_Source\PSoC4/BLE_1_gatt.c ****     CYBLE_GATT_ERR_CODE_T gattErr = CYBLE_GATT_ERR_NONE;
 260              		.loc 1 172 0
 261 0008 3B1C     		mov	r3, r7
 262 000a 0F33     		add	r3, r3, #15
 263 000c 0022     		mov	r2, #0
 264 000e 1A70     		strb	r2, [r3]
 173:.\Generated_Source\PSoC4/BLE_1_gatt.c ****     
 174:.\Generated_Source\PSoC4/BLE_1_gatt.c ****     /* Client Characteristic Configuration descriptor write request */
 175:.\Generated_Source\PSoC4/BLE_1_gatt.c ****     if(eventParam->handleValPair.attrHandle == cyBle_gatts.cccdHandle)
 265              		.loc 1 175 0
 266 0010 7B68     		ldr	r3, [r7, #4]
 267 0012 9A89     		ldrh	r2, [r3, #12]
 268 0014 0B23     		mov	r3, #11
 269 0016 9A42     		cmp	r2, r3
 270 0018 37D1     		bne	.L8
 176:.\Generated_Source\PSoC4/BLE_1_gatt.c ****     {
ARM GAS  C:\Users\Shahed\AppData\Local\Temp\ccvhJTai.s 			page 9


 177:.\Generated_Source\PSoC4/BLE_1_gatt.c ****         /* Store value to database */
 178:.\Generated_Source\PSoC4/BLE_1_gatt.c ****         gattErr = CyBle_GattsWriteAttributeValue(&eventParam->handleValPair, 0u, 
 271              		.loc 1 178 0
 272 001a 7B68     		ldr	r3, [r7, #4]
 273 001c 1A1D     		add	r2, r3, #4
 274 001e 7B68     		ldr	r3, [r7, #4]
 275 0020 3C1C     		mov	r4, r7
 276 0022 0F34     		add	r4, r4, #15
 277 0024 101C     		mov	r0, r2
 278 0026 0021     		mov	r1, #0
 279 0028 1A1C     		mov	r2, r3
 280 002a 4023     		mov	r3, #64
 281 002c FFF7FEFF 		bl	CyBle_GattsWriteAttributeValue
 282 0030 031C     		mov	r3, r0
 283 0032 2370     		strb	r3, [r4]
 179:.\Generated_Source\PSoC4/BLE_1_gatt.c ****                         &eventParam->connHandle, CYBLE_GATT_DB_PEER_INITIATED);
 180:.\Generated_Source\PSoC4/BLE_1_gatt.c ****         
 181:.\Generated_Source\PSoC4/BLE_1_gatt.c ****         if(CYBLE_GATT_ERR_NONE == gattErr)
 284              		.loc 1 181 0
 285 0034 3B1C     		mov	r3, r7
 286 0036 0F33     		add	r3, r3, #15
 287 0038 1B78     		ldrb	r3, [r3]
 288 003a 002B     		cmp	r3, #0
 289 003c 1DD1     		bne	.L9
 182:.\Generated_Source\PSoC4/BLE_1_gatt.c ****         {
 183:.\Generated_Source\PSoC4/BLE_1_gatt.c ****             if(CYBLE_IS_INDICATION_ENABLED_IN_PTR(eventParam->handleValPair.value.val))
 290              		.loc 1 183 0
 291 003e 7B68     		ldr	r3, [r7, #4]
 292 0040 5B68     		ldr	r3, [r3, #4]
 293 0042 181C     		mov	r0, r3
 294 0044 FFF7FEFF 		bl	CyBle_Get16ByPtr
 295 0048 031C     		mov	r3, r0
 296 004a 1A1C     		mov	r2, r3
 297 004c 0223     		mov	r3, #2
 298 004e 1340     		and	r3, r2
 299 0050 9BB2     		uxth	r3, r3
 300 0052 002B     		cmp	r3, #0
 301 0054 08D0     		beq	.L10
 184:.\Generated_Source\PSoC4/BLE_1_gatt.c ****             {
 185:.\Generated_Source\PSoC4/BLE_1_gatt.c ****                 CyBle_ApplCallback((uint32)CYBLE_EVT_GATTS_INDICATION_ENABLED, eventParam);
 302              		.loc 1 185 0
 303 0056 104B     		ldr	r3, .L12
 304 0058 1B68     		ldr	r3, [r3]
 305 005a 8222     		mov	r2, #130
 306 005c 5100     		lsl	r1, r2, #1
 307 005e 7A68     		ldr	r2, [r7, #4]
 308 0060 081C     		mov	r0, r1
 309 0062 111C     		mov	r1, r2
 310 0064 9847     		blx	r3
 311 0066 08E0     		b	.L9
 312              	.L10:
 186:.\Generated_Source\PSoC4/BLE_1_gatt.c ****             }
 187:.\Generated_Source\PSoC4/BLE_1_gatt.c ****             else
 188:.\Generated_Source\PSoC4/BLE_1_gatt.c ****             {
 189:.\Generated_Source\PSoC4/BLE_1_gatt.c ****                 CyBle_ApplCallback((uint32)CYBLE_EVT_GATTS_INDICATION_DISABLED, eventParam);
 313              		.loc 1 189 0
 314 0068 0B4B     		ldr	r3, .L12
ARM GAS  C:\Users\Shahed\AppData\Local\Temp\ccvhJTai.s 			page 10


 315 006a 1B68     		ldr	r3, [r3]
 316 006c 0622     		mov	r2, #6
 317 006e 111C     		mov	r1, r2
 318 0070 FF31     		add	r1, r1, #255
 319 0072 7A68     		ldr	r2, [r7, #4]
 320 0074 081C     		mov	r0, r1
 321 0076 111C     		mov	r1, r2
 322 0078 9847     		blx	r3
 323              	.L9:
 190:.\Generated_Source\PSoC4/BLE_1_gatt.c ****             }
 191:.\Generated_Source\PSoC4/BLE_1_gatt.c ****         }
 192:.\Generated_Source\PSoC4/BLE_1_gatt.c ****         cyBle_eventHandlerFlag &= (uint8)~CYBLE_CALLBACK;
 324              		.loc 1 192 0
 325 007a 084B     		ldr	r3, .L12+4
 326 007c 1B78     		ldrb	r3, [r3]
 327 007e DBB2     		uxtb	r3, r3
 328 0080 0122     		mov	r2, #1
 329 0082 9343     		bic	r3, r2
 330 0084 DAB2     		uxtb	r2, r3
 331 0086 054B     		ldr	r3, .L12+4
 332 0088 1A70     		strb	r2, [r3]
 333              	.L8:
 193:.\Generated_Source\PSoC4/BLE_1_gatt.c ****     }
 194:.\Generated_Source\PSoC4/BLE_1_gatt.c ****     return (gattErr);
 334              		.loc 1 194 0
 335 008a 3B1C     		mov	r3, r7
 336 008c 0F33     		add	r3, r3, #15
 337 008e 1B78     		ldrb	r3, [r3]
 195:.\Generated_Source\PSoC4/BLE_1_gatt.c **** }
 338              		.loc 1 195 0
 339 0090 181C     		mov	r0, r3
 340 0092 BD46     		mov	sp, r7
 341 0094 05B0     		add	sp, sp, #20
 342              		@ sp needed
 343 0096 90BD     		pop	{r4, r7, pc}
 344              	.L13:
 345              		.align	2
 346              	.L12:
 347 0098 00000000 		.word	CyBle_ApplCallback
 348 009c 00000000 		.word	cyBle_eventHandlerFlag
 349              		.cfi_endproc
 350              	.LFE3:
 351              		.size	CyBle_GattsWriteEventHandler, .-CyBle_GattsWriteEventHandler
 352              		.text
 353              	.Letext0:
 354              		.file 2 ".\\Generated_Source\\PSoC4\\cytypes.h"
 355              		.file 3 ".\\Generated_Source\\PSoC4\\BLE_1_Stack.h"
 356              		.file 4 ".\\Generated_Source\\PSoC4\\BLE_1_StackGatt.h"
 357              		.file 5 ".\\Generated_Source\\PSoC4\\BLE_1_StackGattServer.h"
 358              		.file 6 ".\\Generated_Source\\PSoC4\\BLE_1_StackGattDb.h"
 359              		.file 7 ".\\Generated_Source\\PSoC4\\BLE_1.h"
 360              		.file 8 ".\\Generated_Source\\PSoC4\\BLE_1_gatt.h"
 361              		.file 9 ".\\Generated_Source\\PSoC4\\BLE_1_eventHandler.h"